
out.elf:     file format elf32-tradlittlemips


Disassembly of section .reset:

bd007000 <_reset>:
bd007000:	0f401c02 	jal	bd007008 <_startup>
bd007004:	00000000 	nop

bd007008 <_startup>:
bd007008:	401a6000 	mfc0	k0,c0_status
bd00700c:	7f5a04c0 	ext	k0,k0,0x13,0x1
bd007010:	13400005 	beqz	k0,bd007028 <_no_nmi>
bd007014:	00000000 	nop
bd007018:	3c1a9d01 	lui	k0,0x9d01
bd00701c:	275a95b8 	addiu	k0,k0,-27208
bd007020:	03400008 	jr	k0
bd007024:	00000000 	nop

bd007028 <_no_nmi>:
bd007028:	3c1da001 	lui	sp,0xa001
bd00702c:	27bdfff0 	addiu	sp,sp,-16
bd007030:	3c1ca000 	lui	gp,0xa000
bd007034:	279c7ff0 	addiu	gp,gp,32752
bd007038:	3c089d01 	lui	t0,0x9d01
bd00703c:	25089624 	addiu	t0,t0,-27100
bd007040:	0100f809 	jalr	t0
bd007044:	00000000 	nop
bd007048:	3c089d01 	lui	t0,0x9d01
bd00704c:	25089060 	addiu	t0,t0,-28576
bd007050:	0100f809 	jalr	t0
bd007054:	00000000 	nop
bd007058:	3c090000 	lui	t1,0x0
bd00705c:	25290000 	addiu	t1,t1,0
bd007060:	11200010 	beqz	t1,bd0070a4 <_ramfunc_done>
bd007064:	00000000 	nop
bd007068:	3c090001 	lui	t1,0x1
bd00706c:	25290000 	addiu	t1,t1,0
bd007070:	3c0abf88 	lui	t2,0xbf88
bd007074:	254a2010 	addiu	t2,t2,8208
bd007078:	ad490000 	sw	t1,0(t2)
bd00707c:	3c090001 	lui	t1,0x1
bd007080:	25290000 	addiu	t1,t1,0
bd007084:	3c0abf88 	lui	t2,0xbf88
bd007088:	254a2020 	addiu	t2,t2,8224
bd00708c:	ad490000 	sw	t1,0(t2)
bd007090:	3c090001 	lui	t1,0x1
bd007094:	25290000 	addiu	t1,t1,0
bd007098:	3c0abf88 	lui	t2,0xbf88
bd00709c:	254a2030 	addiu	t2,t2,8240
bd0070a0:	ad490000 	sw	t1,0(t2)

bd0070a4 <_ramfunc_done>:
bd0070a4:	40804800 	mtc0	zero,c0_count
bd0070a8:	240affff 	li	t2,-1
bd0070ac:	408a5800 	mtc0	t2,c0_compare
bd0070b0:	3c080040 	lui	t0,0x40
bd0070b4:	400a6000 	mfc0	t2,c0_status
bd0070b8:	010a5025 	or	t2,t0,t2
bd0070bc:	408a6000 	mtc0	t2,c0_status
bd0070c0:	3c099d00 	lui	t1,0x9d00
bd0070c4:	25296000 	addiu	t1,t1,24576
bd0070c8:	000000c0 	ehb
bd0070cc:	40897801 	mtc0	t1,c0_ebase
bd0070d0:	3c090000 	lui	t1,0x0
bd0070d4:	25290001 	addiu	t1,t1,1
bd0070d8:	240a0000 	li	t2,0
bd0070dc:	7d2a4944 	ins	t2,t1,0x5,0x5
bd0070e0:	408a6001 	mtc0	t2,c0_intctl
bd0070e4:	3c090080 	lui	t1,0x80
bd0070e8:	40896800 	mtc0	t1,c0_cause
bd0070ec:	40088000 	mfc0	t0,c0_config
bd0070f0:	7d090580 	ext	t1,t0,0x16,0x1
bd0070f4:	00094c40 	sll	t1,t1,0x11
bd0070f8:	40086000 	mfc0	t0,c0_status
bd0070fc:	3c010058 	lui	at,0x58
bd007100:	01014024 	and	t0,t0,at
bd007104:	01284025 	or	t0,t1,t0
bd007108:	40886000 	mtc0	t0,c0_status
bd00710c:	000000c0 	ehb
bd007110:	3c089d01 	lui	t0,0x9d01
bd007114:	2508962c 	addiu	t0,t0,-27092
bd007118:	0100f809 	jalr	t0
bd00711c:	00000000 	nop
bd007120:	40086000 	mfc0	t0,c0_status
bd007124:	3c01ffbf 	lui	at,0xffbf
bd007128:	3421ffff 	ori	at,at,0xffff
bd00712c:	01014024 	and	t0,t0,at
bd007130:	40886000 	mtc0	t0,c0_status
bd007134:	30840000 	andi	a0,a0,0x0
bd007138:	30a50000 	andi	a1,a1,0x0
bd00713c:	3c089d01 	lui	t0,0x9d01
bd007140:	25089268 	addiu	t0,t0,-28056
bd007144:	01000008 	jr	t0
bd007148:	00000000 	nop

Disassembly of section .bev_excpt:

bfc07380 <_bev_exception>:
bfc07380:	3c1a9d01 	lui	k0,0x9d01
bfc07384:	275a930c 	addiu	k0,k0,-27892
bfc07388:	03400008 	jr	k0
bfc0738c:	00000000 	nop

Disassembly of section .app_excpt:

9d006180 <_gen_exception>:
9d006180:	3c1a9d01 	lui	k0,0x9d01
9d006184:	275a8efc 	addiu	k0,k0,-28932
9d006188:	03400008 	jr	k0
9d00618c:	00000000 	nop

Disassembly of section .vector_0:

9d006200 <__vector_dispatch_0>:
9d006200:	0b4024e7 	j	9d00939c <_DefaultInterrupt>
9d006204:	00000000 	nop

Disassembly of section .vector_1:

9d006220 <__vector_dispatch_1>:
9d006220:	0b4024e7 	j	9d00939c <_DefaultInterrupt>
9d006224:	00000000 	nop

Disassembly of section .vector_2:

9d006240 <__vector_dispatch_2>:
9d006240:	0b4024e7 	j	9d00939c <_DefaultInterrupt>
9d006244:	00000000 	nop

Disassembly of section .vector_3:

9d006260 <__vector_dispatch_3>:
9d006260:	0b401e90 	j	9d007a40 <Ext0ISR>
9d006264:	00000000 	nop

Disassembly of section .vector_4:

9d006280 <__vector_dispatch_4>:
9d006280:	0b4024e7 	j	9d00939c <_DefaultInterrupt>
9d006284:	00000000 	nop

Disassembly of section .vector_5:

9d0062a0 <__vector_dispatch_5>:
9d0062a0:	0b4024e7 	j	9d00939c <_DefaultInterrupt>
9d0062a4:	00000000 	nop

Disassembly of section .vector_6:

9d0062c0 <__vector_dispatch_6>:
9d0062c0:	0b4024e7 	j	9d00939c <_DefaultInterrupt>
9d0062c4:	00000000 	nop

Disassembly of section .vector_7:

9d0062e0 <__vector_dispatch_7>:
9d0062e0:	0b401ec5 	j	9d007b14 <Ext1ISR>
9d0062e4:	00000000 	nop

Disassembly of section .vector_8:

9d006300 <__vector_dispatch_8>:
9d006300:	0b4024e7 	j	9d00939c <_DefaultInterrupt>
9d006304:	00000000 	nop

Disassembly of section .vector_9:

9d006320 <__vector_dispatch_9>:
9d006320:	0b4024e7 	j	9d00939c <_DefaultInterrupt>
9d006324:	00000000 	nop

Disassembly of section .vector_10:

9d006340 <__vector_dispatch_10>:
9d006340:	0b4024e7 	j	9d00939c <_DefaultInterrupt>
9d006344:	00000000 	nop

Disassembly of section .vector_11:

9d006360 <__vector_dispatch_11>:
9d006360:	0b4024e7 	j	9d00939c <_DefaultInterrupt>
9d006364:	00000000 	nop

Disassembly of section .vector_12:

9d006380 <__vector_dispatch_12>:
9d006380:	0b4024e7 	j	9d00939c <_DefaultInterrupt>
9d006384:	00000000 	nop

Disassembly of section .vector_13:

9d0063a0 <__vector_dispatch_13>:
9d0063a0:	0b4024e7 	j	9d00939c <_DefaultInterrupt>
9d0063a4:	00000000 	nop

Disassembly of section .vector_14:

9d0063c0 <__vector_dispatch_14>:
9d0063c0:	0b4024e7 	j	9d00939c <_DefaultInterrupt>
9d0063c4:	00000000 	nop

Disassembly of section .vector_15:

9d0063e0 <__vector_dispatch_15>:
9d0063e0:	0b4024e7 	j	9d00939c <_DefaultInterrupt>
9d0063e4:	00000000 	nop

Disassembly of section .vector_16:

9d006400 <__vector_dispatch_16>:
9d006400:	0b4024e7 	j	9d00939c <_DefaultInterrupt>
9d006404:	00000000 	nop

Disassembly of section .vector_17:

9d006420 <__vector_dispatch_17>:
9d006420:	0b4024e7 	j	9d00939c <_DefaultInterrupt>
9d006424:	00000000 	nop

Disassembly of section .vector_18:

9d006440 <__vector_dispatch_18>:
9d006440:	0b4024e7 	j	9d00939c <_DefaultInterrupt>
9d006444:	00000000 	nop

Disassembly of section .vector_19:

9d006460 <__vector_dispatch_19>:
9d006460:	0b4024e7 	j	9d00939c <_DefaultInterrupt>
9d006464:	00000000 	nop

Disassembly of section .vector_20:

9d006480 <__vector_dispatch_20>:
9d006480:	0b4024e7 	j	9d00939c <_DefaultInterrupt>
9d006484:	00000000 	nop

Disassembly of section .vector_21:

9d0064a0 <__vector_dispatch_21>:
9d0064a0:	0b4024e7 	j	9d00939c <_DefaultInterrupt>
9d0064a4:	00000000 	nop

Disassembly of section .vector_22:

9d0064c0 <__vector_dispatch_22>:
9d0064c0:	0b4024e7 	j	9d00939c <_DefaultInterrupt>
9d0064c4:	00000000 	nop

Disassembly of section .vector_23:

9d0064e0 <__vector_dispatch_23>:
9d0064e0:	0b4024e7 	j	9d00939c <_DefaultInterrupt>
9d0064e4:	00000000 	nop

Disassembly of section .vector_24:

9d006500 <__vector_dispatch_24>:
9d006500:	0b4024e7 	j	9d00939c <_DefaultInterrupt>
9d006504:	00000000 	nop

Disassembly of section .vector_25:

9d006520 <__vector_dispatch_25>:
9d006520:	0b4024e7 	j	9d00939c <_DefaultInterrupt>
9d006524:	00000000 	nop

Disassembly of section .vector_26:

9d006540 <__vector_dispatch_26>:
9d006540:	0b4024e7 	j	9d00939c <_DefaultInterrupt>
9d006544:	00000000 	nop

Disassembly of section .vector_27:

9d006560 <__vector_dispatch_27>:
9d006560:	0b4024e7 	j	9d00939c <_DefaultInterrupt>
9d006564:	00000000 	nop

Disassembly of section .vector_28:

9d006580 <__vector_dispatch_28>:
9d006580:	0b4024e7 	j	9d00939c <_DefaultInterrupt>
9d006584:	00000000 	nop

Disassembly of section .vector_29:

9d0065a0 <__vector_dispatch_29>:
9d0065a0:	0b4024e7 	j	9d00939c <_DefaultInterrupt>
9d0065a4:	00000000 	nop

Disassembly of section .vector_30:

9d0065c0 <__vector_dispatch_30>:
9d0065c0:	0b4024e7 	j	9d00939c <_DefaultInterrupt>
9d0065c4:	00000000 	nop

Disassembly of section .vector_31:

9d0065e0 <__vector_dispatch_31>:
9d0065e0:	0b4024e7 	j	9d00939c <_DefaultInterrupt>
9d0065e4:	00000000 	nop

Disassembly of section .vector_32:

9d006600 <__vector_dispatch_32>:
9d006600:	0b4024e7 	j	9d00939c <_DefaultInterrupt>
9d006604:	00000000 	nop

Disassembly of section .vector_33:

9d006620 <__vector_dispatch_33>:
9d006620:	0b4024e7 	j	9d00939c <_DefaultInterrupt>
9d006624:	00000000 	nop

Disassembly of section .vector_34:

9d006640 <__vector_dispatch_34>:
9d006640:	0b4024e7 	j	9d00939c <_DefaultInterrupt>
9d006644:	00000000 	nop

Disassembly of section .vector_35:

9d006660 <__vector_dispatch_35>:
9d006660:	0b4024e7 	j	9d00939c <_DefaultInterrupt>
9d006664:	00000000 	nop

Disassembly of section .vector_36:

9d006680 <__vector_dispatch_36>:
9d006680:	0b4024e7 	j	9d00939c <_DefaultInterrupt>
9d006684:	00000000 	nop

Disassembly of section .vector_37:

9d0066a0 <__vector_dispatch_37>:
9d0066a0:	0b4024e7 	j	9d00939c <_DefaultInterrupt>
9d0066a4:	00000000 	nop

Disassembly of section .vector_38:

9d0066c0 <__vector_dispatch_38>:
9d0066c0:	0b4024e7 	j	9d00939c <_DefaultInterrupt>
9d0066c4:	00000000 	nop

Disassembly of section .vector_39:

9d0066e0 <__vector_dispatch_39>:
9d0066e0:	0b4024e7 	j	9d00939c <_DefaultInterrupt>
9d0066e4:	00000000 	nop

Disassembly of section .vector_40:

9d006700 <__vector_dispatch_40>:
9d006700:	0b4024e7 	j	9d00939c <_DefaultInterrupt>
9d006704:	00000000 	nop

Disassembly of section .vector_41:

9d006720 <__vector_dispatch_41>:
9d006720:	0b4024e7 	j	9d00939c <_DefaultInterrupt>
9d006724:	00000000 	nop

Disassembly of section .vector_42:

9d006740 <__vector_dispatch_42>:
9d006740:	0b4024e7 	j	9d00939c <_DefaultInterrupt>
9d006744:	00000000 	nop

Disassembly of section .vector_43:

9d006760 <__vector_dispatch_43>:
9d006760:	0b4024e7 	j	9d00939c <_DefaultInterrupt>
9d006764:	00000000 	nop

Disassembly of section .rodata:

9d007490 <.rodata>:
9d007490:	6c696e28 	0x6c696e28
9d007494:	00000029 	0x29
9d007498:	00000025 	move	zero,zero

Disassembly of section ._debug_exception:

bfc00480 <__DbgExecReturn>:
bfc00480:	409bf800 	mtc0	k1,c0_desave
bfc00484:	000000c0 	ehb
bfc00488:	3c1b9d01 	lui	k1,0x9d01
bfc0048c:	277b93e4 	addiu	k1,k1,-27676
bfc00490:	13600002 	beqz	k1,bfc0049c <__DbgExecReturn+0x1c>
bfc00494:	00000000 	nop
bfc00498:	409bc000 	mtc0	k1,c0_depc
bfc0049c:	401bf800 	mfc0	k1,c0_desave
bfc004a0:	000000c0 	ehb
bfc004a4:	4200001f 	deret
bfc004a8:	00000000 	nop

Disassembly of section .text.__printf_core:

9d00749c <__printf_core>:
9d00749c:	27bdff18 	addiu	sp,sp,-232
9d0074a0:	afb400dc 	sw	s4,220(sp)
9d0074a4:	afb300d8 	sw	s3,216(sp)
9d0074a8:	afb200d4 	sw	s2,212(sp)
9d0074ac:	afb100d0 	sw	s1,208(sp)
9d0074b0:	afbf00e4 	sw	ra,228(sp)
9d0074b4:	afb500e0 	sw	s5,224(sp)
9d0074b8:	afb000cc 	sw	s0,204(sp)
9d0074bc:	00809025 	move	s2,a0
9d0074c0:	00c08825 	move	s1,a2
9d0074c4:	afa500b8 	sw	a1,184(sp)
9d0074c8:	00009825 	move	s3,zero
9d0074cc:	3c149d00 	lui	s4,0x9d00
9d0074d0:	8fa500b8 	lw	a1,184(sp)
9d0074d4:	80a20000 	lb	v0,0(a1)
9d0074d8:	104000e4 	beqz	v0,9d00786c <__printf_core+0x3d0>
9d0074dc:	2402ffff 	li	v0,-1
9d0074e0:	afa2009c 	sw	v0,156(sp)
9d0074e4:	27a20018 	addiu	v0,sp,24
9d0074e8:	afa200a4 	sw	v0,164(sp)
9d0074ec:	24020080 	li	v0,128
9d0074f0:	afa00098 	sw	zero,152(sp)
9d0074f4:	afa000a0 	sw	zero,160(sp)
9d0074f8:	afa200a8 	sw	v0,168(sp)
9d0074fc:	00008025 	move	s0,zero
9d007500:	24030025 	li	v1,37
9d007504:	00b01021 	addu	v0,a1,s0
9d007508:	80420000 	lb	v0,0(v0)
9d00750c:	10400003 	beqz	v0,9d00751c <__printf_core+0x80>
9d007510:	00000000 	nop
9d007514:	5443fffb 	bnel	v0,v1,9d007504 <__printf_core+0x68>
9d007518:	26100001 	addiu	s0,s0,1
9d00751c:	12000006 	beqz	s0,9d007538 <__printf_core+0x9c>
9d007520:	02003025 	move	a2,s0
9d007524:	0f40246c 	jal	9d0091b0 <__out>
9d007528:	02402025 	move	a0,s2
9d00752c:	8fa200b8 	lw	v0,184(sp)
9d007530:	00501021 	addu	v0,v0,s0
9d007534:	afa200b8 	sw	v0,184(sp)
9d007538:	8fb500b8 	lw	s5,184(sp)
9d00753c:	24020025 	li	v0,37
9d007540:	82a30000 	lb	v1,0(s5)
9d007544:	146200c2 	bne	v1,v0,9d007850 <__printf_core+0x3b4>
9d007548:	26b50001 	addiu	s5,s5,1
9d00754c:	afb500b8 	sw	s5,184(sp)
9d007550:	2405002b 	li	a1,43
9d007554:	2406002d 	li	a2,45
9d007558:	24030030 	li	v1,48
9d00755c:	24070020 	li	a3,32
9d007560:	24080023 	li	t0,35
9d007564:	8fa400b8 	lw	a0,184(sp)
9d007568:	80820000 	lb	v0,0(a0)
9d00756c:	5045001b 	beql	v0,a1,9d0075dc <__printf_core+0x140>
9d007570:	8fa20098 	lw	v0,152(sp)
9d007574:	2849002c 	slti	t1,v0,44
9d007578:	1120001e 	beqz	t1,9d0075f4 <__printf_core+0x158>
9d00757c:	00000000 	nop
9d007580:	50470018 	beql	v0,a3,9d0075e4 <__printf_core+0x148>
9d007584:	8fa20098 	lw	v0,152(sp)
9d007588:	50480018 	beql	v0,t0,9d0075ec <__printf_core+0x150>
9d00758c:	8fa20098 	lw	v0,152(sp)
9d007590:	2403002a 	li	v1,42
9d007594:	5043001e 	beql	v0,v1,9d007610 <__printf_core+0x174>
9d007598:	8e220000 	lw	v0,0(s1)
9d00759c:	0f402435 	jal	9d0090d4 <atoi>
9d0075a0:	00000000 	nop
9d0075a4:	afa200a0 	sw	v0,160(sp)
9d0075a8:	8fa300b8 	lw	v1,184(sp)
9d0075ac:	80620000 	lb	v0,0(v1)
9d0075b0:	2442ffd0 	addiu	v0,v0,-48
9d0075b4:	2c42000a 	sltiu	v0,v0,10
9d0075b8:	10400021 	beqz	v0,9d007640 <__printf_core+0x1a4>
9d0075bc:	24630001 	addiu	v1,v1,1
9d0075c0:	1000fff9 	b	9d0075a8 <__printf_core+0x10c>
9d0075c4:	afa300b8 	sw	v1,184(sp)
9d0075c8:	34420001 	ori	v0,v0,0x1
9d0075cc:	24840001 	addiu	a0,a0,1
9d0075d0:	afa20098 	sw	v0,152(sp)
9d0075d4:	1000ffe3 	b	9d007564 <__printf_core+0xc8>
9d0075d8:	afa400b8 	sw	a0,184(sp)
9d0075dc:	1000fffb 	b	9d0075cc <__printf_core+0x130>
9d0075e0:	34420004 	ori	v0,v0,0x4
9d0075e4:	1000fff9 	b	9d0075cc <__printf_core+0x130>
9d0075e8:	34420008 	ori	v0,v0,0x8
9d0075ec:	1000fff7 	b	9d0075cc <__printf_core+0x130>
9d0075f0:	34420010 	ori	v0,v0,0x10
9d0075f4:	5046fff4 	beql	v0,a2,9d0075c8 <__printf_core+0x12c>
9d0075f8:	8fa20098 	lw	v0,152(sp)
9d0075fc:	5443ffe5 	bnel	v0,v1,9d007594 <__printf_core+0xf8>
9d007600:	2403002a 	li	v1,42
9d007604:	8fa20098 	lw	v0,152(sp)
9d007608:	1000fff0 	b	9d0075cc <__printf_core+0x130>
9d00760c:	34420002 	ori	v0,v0,0x2
9d007610:	24840001 	addiu	a0,a0,1
9d007614:	afa400b8 	sw	a0,184(sp)
9d007618:	24430004 	addiu	v1,v0,4
9d00761c:	8c420000 	lw	v0,0(v0)
9d007620:	ae230000 	sw	v1,0(s1)
9d007624:	04410006 	bgez	v0,9d007640 <__printf_core+0x1a4>
9d007628:	afa200a0 	sw	v0,160(sp)
9d00762c:	8fa30098 	lw	v1,152(sp)
9d007630:	00021023 	negu	v0,v0
9d007634:	afa200a0 	sw	v0,160(sp)
9d007638:	38630001 	xori	v1,v1,0x1
9d00763c:	afa30098 	sw	v1,152(sp)
9d007640:	8fa20098 	lw	v0,152(sp)
9d007644:	30430001 	andi	v1,v0,0x1
9d007648:	10600002 	beqz	v1,9d007654 <__printf_core+0x1b8>
9d00764c:	7c020844 	ins	v0,zero,0x1,0x1
9d007650:	afa20098 	sw	v0,152(sp)
9d007654:	8fa200b8 	lw	v0,184(sp)
9d007658:	2403002e 	li	v1,46
9d00765c:	80440000 	lb	a0,0(v0)
9d007660:	1483000d 	bne	a0,v1,9d007698 <__printf_core+0x1fc>
9d007664:	24440001 	addiu	a0,v0,1
9d007668:	afa0009c 	sw	zero,156(sp)
9d00766c:	afa400b8 	sw	a0,184(sp)
9d007670:	80450001 	lb	a1,1(v0)
9d007674:	2403002a 	li	v1,42
9d007678:	14a30023 	bne	a1,v1,9d007708 <__printf_core+0x26c>
9d00767c:	24420002 	addiu	v0,v0,2
9d007680:	afa200b8 	sw	v0,184(sp)
9d007684:	8e220000 	lw	v0,0(s1)
9d007688:	24430004 	addiu	v1,v0,4
9d00768c:	8c420000 	lw	v0,0(v0)
9d007690:	ae230000 	sw	v1,0(s1)
9d007694:	afa2009c 	sw	v0,156(sp)
9d007698:	0f402484 	jal	9d009210 <__fmt_state>
9d00769c:	27a400b8 	addiu	a0,sp,184
9d0076a0:	afa200c0 	sw	v0,192(sp)
9d0076a4:	8fa200b8 	lw	v0,184(sp)
9d0076a8:	0f402559 	jal	9d009564 <tolower>
9d0076ac:	80440000 	lb	a0,0(v0)
9d0076b0:	24030069 	li	v1,105
9d0076b4:	10430077 	beq	v0,v1,9d007894 <__printf_core+0x3f8>
9d0076b8:	8fa500c0 	lw	a1,192(sp)
9d0076bc:	2843006a 	slti	v1,v0,106
9d0076c0:	1060002f 	beqz	v1,9d007780 <__printf_core+0x2e4>
9d0076c4:	24030063 	li	v1,99
9d0076c8:	104300be 	beq	v0,v1,9d0079c4 <__printf_core+0x528>
9d0076cc:	28430064 	slti	v1,v0,100
9d0076d0:	10600018 	beqz	v1,9d007734 <__printf_core+0x298>
9d0076d4:	24030025 	li	v1,37
9d0076d8:	104300cb 	beq	v0,v1,9d007a08 <__printf_core+0x56c>
9d0076dc:	24030061 	li	v1,97
9d0076e0:	5043004f 	beql	v0,v1,9d007820 <__printf_core+0x384>
9d0076e4:	02203025 	move	a2,s1
9d0076e8:	2402ffff 	li	v0,-1
9d0076ec:	afb500b8 	sw	s5,184(sp)
9d0076f0:	afa00098 	sw	zero,152(sp)
9d0076f4:	afa000a0 	sw	zero,160(sp)
9d0076f8:	afa2009c 	sw	v0,156(sp)
9d0076fc:	afa00010 	sw	zero,16(sp)
9d007700:	100000c9 	b	9d007a28 <__printf_core+0x58c>
9d007704:	00003825 	move	a3,zero
9d007708:	0f402435 	jal	9d0090d4 <atoi>
9d00770c:	00000000 	nop
9d007710:	afa2009c 	sw	v0,156(sp)
9d007714:	8fa300b8 	lw	v1,184(sp)
9d007718:	80620000 	lb	v0,0(v1)
9d00771c:	2442ffd0 	addiu	v0,v0,-48
9d007720:	2c42000a 	sltiu	v0,v0,10
9d007724:	1040ffdc 	beqz	v0,9d007698 <__printf_core+0x1fc>
9d007728:	24630001 	addiu	v1,v1,1
9d00772c:	1000fff9 	b	9d007714 <__printf_core+0x278>
9d007730:	afa300b8 	sw	v1,184(sp)
9d007734:	24030064 	li	v1,100
9d007738:	10430056 	beq	v0,v1,9d007894 <__printf_core+0x3f8>
9d00773c:	28420068 	slti	v0,v0,104
9d007740:	1040ffea 	beqz	v0,9d0076ec <__printf_core+0x250>
9d007744:	2402ffff 	li	v0,-1
9d007748:	02203025 	move	a2,s1
9d00774c:	0f4024af 	jal	9d0092bc <__pop_float>
9d007750:	27a400b0 	addiu	a0,sp,176
9d007754:	10400097 	beqz	v0,9d0079b4 <__printf_core+0x518>
9d007758:	8fa200b8 	lw	v0,184(sp)
9d00775c:	27a600b0 	addiu	a2,sp,176
9d007760:	27a50098 	addiu	a1,sp,152
9d007764:	24430001 	addiu	v1,v0,1
9d007768:	afa300b8 	sw	v1,184(sp)
9d00776c:	80470000 	lb	a3,0(v0)
9d007770:	0f40258f 	jal	9d00963c <__fmt_a>
9d007774:	02402025 	move	a0,s2
9d007778:	10000035 	b	9d007850 <__printf_core+0x3b4>
9d00777c:	02028021 	addu	s0,s0,v0
9d007780:	24030070 	li	v1,112
9d007784:	1043006e 	beq	v0,v1,9d007940 <__printf_core+0x4a4>
9d007788:	28430071 	slti	v1,v0,113
9d00778c:	10600013 	beqz	v1,9d0077dc <__printf_core+0x340>
9d007790:	2403006e 	li	v1,110
9d007794:	10430083 	beq	v0,v1,9d0079a4 <__printf_core+0x508>
9d007798:	2403006f 	li	v1,111
9d00779c:	1443ffd3 	bne	v0,v1,9d0076ec <__printf_core+0x250>
9d0077a0:	2402ffff 	li	v0,-1
9d0077a4:	02203825 	move	a3,s1
9d0077a8:	00003025 	move	a2,zero
9d0077ac:	0f402241 	jal	9d008904 <__pop_int>
9d0077b0:	27a400b0 	addiu	a0,sp,176
9d0077b4:	1040007f 	beqz	v0,9d0079b4 <__printf_core+0x518>
9d0077b8:	8fa200b8 	lw	v0,184(sp)
9d0077bc:	27a600b0 	addiu	a2,sp,176
9d0077c0:	27a50098 	addiu	a1,sp,152
9d0077c4:	24420001 	addiu	v0,v0,1
9d0077c8:	02402025 	move	a0,s2
9d0077cc:	0f40258d 	jal	9d009634 <__fmt_o>
9d0077d0:	afa200b8 	sw	v0,184(sp)
9d0077d4:	1000001e 	b	9d007850 <__printf_core+0x3b4>
9d0077d8:	02028021 	addu	s0,s0,v0
9d0077dc:	24030075 	li	v1,117
9d0077e0:	1043003a 	beq	v0,v1,9d0078cc <__printf_core+0x430>
9d0077e4:	24030078 	li	v1,120
9d0077e8:	10430046 	beq	v0,v1,9d007904 <__printf_core+0x468>
9d0077ec:	24030073 	li	v1,115
9d0077f0:	1443ffbd 	bne	v0,v1,9d0076e8 <__printf_core+0x24c>
9d0077f4:	24020080 	li	v0,128
9d0077f8:	14a2006e 	bne	a1,v0,9d0079b4 <__printf_core+0x518>
9d0077fc:	8fa200b8 	lw	v0,184(sp)
9d007800:	00003825 	move	a3,zero
9d007804:	24420001 	addiu	v0,v0,1
9d007808:	afa200b8 	sw	v0,184(sp)
9d00780c:	8e220000 	lw	v0,0(s1)
9d007810:	24430004 	addiu	v1,v0,4
9d007814:	ae230000 	sw	v1,0(s1)
9d007818:	10000076 	b	9d0079f4 <__printf_core+0x558>
9d00781c:	8c460000 	lw	a2,0(v0)
9d007820:	0f4024af 	jal	9d0092bc <__pop_float>
9d007824:	27a400b0 	addiu	a0,sp,176
9d007828:	10400062 	beqz	v0,9d0079b4 <__printf_core+0x518>
9d00782c:	8fa200b8 	lw	v0,184(sp)
9d007830:	27a600b0 	addiu	a2,sp,176
9d007834:	27a50098 	addiu	a1,sp,152
9d007838:	24430001 	addiu	v1,v0,1
9d00783c:	afa300b8 	sw	v1,184(sp)
9d007840:	80470000 	lb	a3,0(v0)
9d007844:	0f40258f 	jal	9d00963c <__fmt_a>
9d007848:	02402025 	move	a0,s2
9d00784c:	02028021 	addu	s0,s0,v0
9d007850:	02708021 	addu	s0,s3,s0
9d007854:	0213982a 	slt	s3,s0,s3
9d007858:	12600077 	beqz	s3,9d007a38 <__printf_core+0x59c>
9d00785c:	3c02a000 	lui	v0,0xa000
9d007860:	2403004f 	li	v1,79
9d007864:	ac430008 	sw	v1,8(v0)
9d007868:	2413ffff 	li	s3,-1
9d00786c:	8fbf00e4 	lw	ra,228(sp)
9d007870:	02601025 	move	v0,s3
9d007874:	8fb500e0 	lw	s5,224(sp)
9d007878:	8fb400dc 	lw	s4,220(sp)
9d00787c:	8fb300d8 	lw	s3,216(sp)
9d007880:	8fb200d4 	lw	s2,212(sp)
9d007884:	8fb100d0 	lw	s1,208(sp)
9d007888:	8fb000cc 	lw	s0,204(sp)
9d00788c:	03e00008 	jr	ra
9d007890:	27bd00e8 	addiu	sp,sp,232
9d007894:	02203825 	move	a3,s1
9d007898:	24060001 	li	a2,1
9d00789c:	0f402241 	jal	9d008904 <__pop_int>
9d0078a0:	27a400b0 	addiu	a0,sp,176
9d0078a4:	10400043 	beqz	v0,9d0079b4 <__printf_core+0x518>
9d0078a8:	8fa200b8 	lw	v0,184(sp)
9d0078ac:	27a600b0 	addiu	a2,sp,176
9d0078b0:	27a50098 	addiu	a1,sp,152
9d0078b4:	24420001 	addiu	v0,v0,1
9d0078b8:	02402025 	move	a0,s2
9d0078bc:	0f4022a3 	jal	9d008a8c <__fmt_d>
9d0078c0:	afa200b8 	sw	v0,184(sp)
9d0078c4:	1000ffe2 	b	9d007850 <__printf_core+0x3b4>
9d0078c8:	02028021 	addu	s0,s0,v0
9d0078cc:	02203825 	move	a3,s1
9d0078d0:	00003025 	move	a2,zero
9d0078d4:	0f402241 	jal	9d008904 <__pop_int>
9d0078d8:	27a400b0 	addiu	a0,sp,176
9d0078dc:	10400035 	beqz	v0,9d0079b4 <__printf_core+0x518>
9d0078e0:	8fa200b8 	lw	v0,184(sp)
9d0078e4:	27a600b0 	addiu	a2,sp,176
9d0078e8:	27a50098 	addiu	a1,sp,152
9d0078ec:	24420001 	addiu	v0,v0,1
9d0078f0:	02402025 	move	a0,s2
9d0078f4:	0f40258d 	jal	9d009634 <__fmt_o>
9d0078f8:	afa200b8 	sw	v0,184(sp)
9d0078fc:	1000ffd4 	b	9d007850 <__printf_core+0x3b4>
9d007900:	02028021 	addu	s0,s0,v0
9d007904:	02203825 	move	a3,s1
9d007908:	00003025 	move	a2,zero
9d00790c:	0f402241 	jal	9d008904 <__pop_int>
9d007910:	27a400b0 	addiu	a0,sp,176
9d007914:	10400027 	beqz	v0,9d0079b4 <__printf_core+0x518>
9d007918:	8fa200b8 	lw	v0,184(sp)
9d00791c:	24430001 	addiu	v1,v0,1
9d007920:	afa300b8 	sw	v1,184(sp)
9d007924:	80470000 	lb	a3,0(v0)
9d007928:	27a600b0 	addiu	a2,sp,176
9d00792c:	27a50098 	addiu	a1,sp,152
9d007930:	0f40258f 	jal	9d00963c <__fmt_a>
9d007934:	02402025 	move	a0,s2
9d007938:	1000ffc5 	b	9d007850 <__printf_core+0x3b4>
9d00793c:	02028021 	addu	s0,s0,v0
9d007940:	02203825 	move	a3,s1
9d007944:	00003025 	move	a2,zero
9d007948:	240500f0 	li	a1,240
9d00794c:	0f402241 	jal	9d008904 <__pop_int>
9d007950:	27a400b0 	addiu	a0,sp,176
9d007954:	10400017 	beqz	v0,9d0079b4 <__printf_core+0x518>
9d007958:	8fa200b8 	lw	v0,184(sp)
9d00795c:	8fa300b4 	lw	v1,180(sp)
9d007960:	24420001 	addiu	v0,v0,1
9d007964:	afa200b8 	sw	v0,184(sp)
9d007968:	8fa200b0 	lw	v0,176(sp)
9d00796c:	00431025 	or	v0,v0,v1
9d007970:	1440ffed 	bnez	v0,9d007928 <__printf_core+0x48c>
9d007974:	24070078 	li	a3,120
9d007978:	0f402519 	jal	9d009464 <strlen>
9d00797c:	26847490 	addiu	a0,s4,29840
9d007980:	8fa30098 	lw	v1,152(sp)
9d007984:	8fa700a0 	lw	a3,160(sp)
9d007988:	00403025 	move	a2,v0
9d00798c:	afa30010 	sw	v1,16(sp)
9d007990:	26857490 	addiu	a1,s4,29840
9d007994:	0f402346 	jal	9d008d18 <__pad>
9d007998:	02402025 	move	a0,s2
9d00799c:	1000ffac 	b	9d007850 <__printf_core+0x3b4>
9d0079a0:	02028021 	addu	s0,s0,v0
9d0079a4:	02203825 	move	a3,s1
9d0079a8:	02703021 	addu	a2,s3,s0
9d0079ac:	0f402386 	jal	9d008e18 <__pop_ptr>
9d0079b0:	27a400b0 	addiu	a0,sp,176
9d0079b4:	8fa200b8 	lw	v0,184(sp)
9d0079b8:	24420001 	addiu	v0,v0,1
9d0079bc:	1000ffa4 	b	9d007850 <__printf_core+0x3b4>
9d0079c0:	afa200b8 	sw	v0,184(sp)
9d0079c4:	24020080 	li	v0,128
9d0079c8:	14a2fffa 	bne	a1,v0,9d0079b4 <__printf_core+0x518>
9d0079cc:	8fa200b8 	lw	v0,184(sp)
9d0079d0:	24070001 	li	a3,1
9d0079d4:	27a600b0 	addiu	a2,sp,176
9d0079d8:	24420001 	addiu	v0,v0,1
9d0079dc:	afa200b8 	sw	v0,184(sp)
9d0079e0:	8e220000 	lw	v0,0(s1)
9d0079e4:	24430004 	addiu	v1,v0,4
9d0079e8:	8c420000 	lw	v0,0(v0)
9d0079ec:	ae230000 	sw	v1,0(s1)
9d0079f0:	a3a200b0 	sb	v0,176(sp)
9d0079f4:	27a50098 	addiu	a1,sp,152
9d0079f8:	0f402591 	jal	9d009644 <__fmt_s>
9d0079fc:	02402025 	move	a0,s2
9d007a00:	1000ff93 	b	9d007850 <__printf_core+0x3b4>
9d007a04:	02028021 	addu	s0,s0,v0
9d007a08:	24020080 	li	v0,128
9d007a0c:	14a2ffe9 	bne	a1,v0,9d0079b4 <__printf_core+0x518>
9d007a10:	8fa200b8 	lw	v0,184(sp)
9d007a14:	8fa700a0 	lw	a3,160(sp)
9d007a18:	24420001 	addiu	v0,v0,1
9d007a1c:	afa200b8 	sw	v0,184(sp)
9d007a20:	8fa20098 	lw	v0,152(sp)
9d007a24:	afa20010 	sw	v0,16(sp)
9d007a28:	3c059d00 	lui	a1,0x9d00
9d007a2c:	24060001 	li	a2,1
9d007a30:	1000ffd8 	b	9d007994 <__printf_core+0x4f8>
9d007a34:	24a57498 	addiu	a1,a1,29848
9d007a38:	1000fea5 	b	9d0074d0 <__printf_core+0x34>
9d007a3c:	02009825 	move	s3,s0

Disassembly of section .text:

9d007a40 <Ext0ISR>:

void delay(void);

static volatile unsigned int Entered = 0, Exited = 0;  // note the qualifier "volatile"

void __ISR(_EXTERNAL_0_VECTOR, IPL6SOFT) Ext0ISR(void) {
9d007a40:	415de800 	rdpgpr	sp,sp
9d007a44:	401a7000 	mfc0	k0,c0_epc
9d007a48:	401b6000 	mfc0	k1,c0_status
9d007a4c:	27bdffd8 	addiu	sp,sp,-40
9d007a50:	afba0024 	sw	k0,36(sp)
9d007a54:	401a6002 	mfc0	k0,c0_srsctl
9d007a58:	afbb0020 	sw	k1,32(sp)
9d007a5c:	afba001c 	sw	k0,28(sp)
9d007a60:	7c1b7844 	ins	k1,zero,0x1,0xf
9d007a64:	377b1800 	ori	k1,k1,0x1800
9d007a68:	409b6000 	mtc0	k1,c0_status
9d007a6c:	afbf0014 	sw	ra,20(sp)
9d007a70:	afbe0010 	sw	s8,16(sp)
9d007a74:	afa4000c 	sw	a0,12(sp)
9d007a78:	afa30008 	sw	v1,8(sp)
9d007a7c:	afa20004 	sw	v0,4(sp)
9d007a80:	03a0f025 	move	s8,sp
  Entered = _CP0_GET_COUNT();       // record time ISR begins
9d007a84:	40024800 	mfc0	v0,c0_count
9d007a88:	af828010 	sw	v0,-32752(gp)
  IFS0bits.INT0IF = 0;                // clear the interrupt flag
9d007a8c:	3c03bf88 	lui	v1,0xbf88
9d007a90:	8c621030 	lw	v0,4144(v1)
9d007a94:	7c0218c4 	ins	v0,zero,0x3,0x1
9d007a98:	ac621030 	sw	v0,4144(v1)
  NU32DIP_YELLOW = !NU32DIP_YELLOW;           // turn off yellow LED
9d007a9c:	3c02bf88 	lui	v0,0xbf88
9d007aa0:	8c426130 	lw	v0,24880(v0)
9d007aa4:	7c420140 	ext	v0,v0,0x5,0x1
9d007aa8:	304200ff 	andi	v0,v0,0xff
9d007aac:	38420001 	xori	v0,v0,0x1
9d007ab0:	304400ff 	andi	a0,v0,0xff
9d007ab4:	3c03bf88 	lui	v1,0xbf88
9d007ab8:	94626130 	lhu	v0,24880(v1)
9d007abc:	7c822944 	ins	v0,a0,0x5,0x1
9d007ac0:	a4626130 	sh	v0,24880(v1)
  Exited = _CP0_GET_COUNT();        // record time ISR ends
9d007ac4:	40024800 	mfc0	v0,c0_count
9d007ac8:	af828014 	sw	v0,-32748(gp)
}
9d007acc:	00000000 	nop
9d007ad0:	03c0e825 	move	sp,s8
9d007ad4:	8fbf0014 	lw	ra,20(sp)
9d007ad8:	8fbe0010 	lw	s8,16(sp)
9d007adc:	8fa4000c 	lw	a0,12(sp)
9d007ae0:	8fa30008 	lw	v1,8(sp)
9d007ae4:	8fa20004 	lw	v0,4(sp)
9d007ae8:	41606000 	di
9d007aec:	000000c0 	ehb
9d007af0:	8fba0024 	lw	k0,36(sp)
9d007af4:	8fbb0020 	lw	k1,32(sp)
9d007af8:	409a7000 	mtc0	k0,c0_epc
9d007afc:	8fba001c 	lw	k0,28(sp)
9d007b00:	27bd0028 	addiu	sp,sp,40
9d007b04:	409a6002 	mtc0	k0,c0_srsctl
9d007b08:	41dde800 	wrpgpr	sp,sp
9d007b0c:	409b6000 	mtc0	k1,c0_status
9d007b10:	42000018 	eret

9d007b14 <Ext1ISR>:

void __ISR(_EXTERNAL_1_VECTOR, IPL6SRS) Ext1ISR(void) {
9d007b14:	415de800 	rdpgpr	sp,sp
9d007b18:	401a7000 	mfc0	k0,c0_epc
9d007b1c:	401b6000 	mfc0	k1,c0_status
9d007b20:	27bdffd8 	addiu	sp,sp,-40
9d007b24:	afba0024 	sw	k0,36(sp)
9d007b28:	401a6002 	mfc0	k0,c0_srsctl
9d007b2c:	afbb0020 	sw	k1,32(sp)
9d007b30:	afba001c 	sw	k0,28(sp)
9d007b34:	7c1b7844 	ins	k1,zero,0x1,0xf
9d007b38:	377b1800 	ori	k1,k1,0x1800
9d007b3c:	409b6000 	mtc0	k1,c0_status
9d007b40:	afbf0014 	sw	ra,20(sp)
9d007b44:	afbe0010 	sw	s8,16(sp)
9d007b48:	afa4000c 	sw	a0,12(sp)
9d007b4c:	afa30008 	sw	v1,8(sp)
9d007b50:	afa20004 	sw	v0,4(sp)
9d007b54:	03a0f025 	move	s8,sp
  Entered = _CP0_GET_COUNT();       // record time ISR begins
9d007b58:	40024800 	mfc0	v0,c0_count
9d007b5c:	af828010 	sw	v0,-32752(gp)
  IFS0bits.INT1IF = 0;              // clear the interrupt flag
9d007b60:	3c03bf88 	lui	v1,0xbf88
9d007b64:	8c621030 	lw	v0,4144(v1)
9d007b68:	7c024204 	ins	v0,zero,0x8,0x1
9d007b6c:	ac621030 	sw	v0,4144(v1)
  NU32DIP_YELLOW = !NU32DIP_YELLOW;           // turn on yellow LED
9d007b70:	3c02bf88 	lui	v0,0xbf88
9d007b74:	8c426130 	lw	v0,24880(v0)
9d007b78:	7c420140 	ext	v0,v0,0x5,0x1
9d007b7c:	304200ff 	andi	v0,v0,0xff
9d007b80:	38420001 	xori	v0,v0,0x1
9d007b84:	304400ff 	andi	a0,v0,0xff
9d007b88:	3c03bf88 	lui	v1,0xbf88
9d007b8c:	94626130 	lhu	v0,24880(v1)
9d007b90:	7c822944 	ins	v0,a0,0x5,0x1
9d007b94:	a4626130 	sh	v0,24880(v1)
  Exited = _CP0_GET_COUNT();        // record time ISR ends
9d007b98:	40024800 	mfc0	v0,c0_count
9d007b9c:	af828014 	sw	v0,-32748(gp)
}
9d007ba0:	00000000 	nop
9d007ba4:	03c0e825 	move	sp,s8
9d007ba8:	8fbf0014 	lw	ra,20(sp)
9d007bac:	8fbe0010 	lw	s8,16(sp)
9d007bb0:	8fa4000c 	lw	a0,12(sp)
9d007bb4:	8fa30008 	lw	v1,8(sp)
9d007bb8:	8fa20004 	lw	v0,4(sp)
9d007bbc:	41606000 	di
9d007bc0:	000000c0 	ehb
9d007bc4:	8fba0024 	lw	k0,36(sp)
9d007bc8:	8fbb0020 	lw	k1,32(sp)
9d007bcc:	409a7000 	mtc0	k0,c0_epc
9d007bd0:	8fba001c 	lw	k0,28(sp)
9d007bd4:	27bd0028 	addiu	sp,sp,40
9d007bd8:	409a6002 	mtc0	k0,c0_srsctl
9d007bdc:	41dde800 	wrpgpr	sp,sp
9d007be0:	409b6000 	mtc0	k1,c0_status
9d007be4:	42000018 	eret

9d007be8 <main>:

int main(void) {
9d007be8:	27bdff50 	addiu	sp,sp,-176
9d007bec:	afbf00ac 	sw	ra,172(sp)
9d007bf0:	afbe00a8 	sw	s8,168(sp)
9d007bf4:	03a0f025 	move	s8,sp
  unsigned int dt = 0;
9d007bf8:	afc00018 	sw	zero,24(s8)
  unsigned int encopy, excopy;      // local copies of globals Entered, Exited
  char msg[128] = {};
9d007bfc:	27c30024 	addiu	v1,s8,36
9d007c00:	24020080 	li	v0,128
9d007c04:	00403025 	move	a2,v0
9d007c08:	00002825 	move	a1,zero
9d007c0c:	00602025 	move	a0,v1
9d007c10:	0f40253b 	jal	9d0094ec <memset>
9d007c14:	00000000 	nop

  NU32DIP_Startup(); // cache on, min flash wait, interrupts on, LED/button init, UART init
9d007c18:	0f40218e 	jal	9d008638 <NU32DIP_Startup>
9d007c1c:	00000000 	nop
  __builtin_disable_interrupts();   // step 2: disable interrupts at CPU
9d007c20:	41626000 	di	v0
9d007c24:	000000c0 	ehb
9d007c28:	00000000 	nop
  
  
  // INTCONSET = 0x3;                  // step 3: INT0 and INT1 trigger on rising edge
  INTCONbits.INT0EP = 1;
9d007c2c:	3c03bf88 	lui	v1,0xbf88
9d007c30:	8c621000 	lw	v0,4096(v1)
9d007c34:	24040001 	li	a0,1
9d007c38:	7c820004 	ins	v0,a0,0x0,0x1
9d007c3c:	ac621000 	sw	v0,4096(v1)
  INTCONbits.INT1EP = 1;
9d007c40:	3c03bf88 	lui	v1,0xbf88
9d007c44:	8c621000 	lw	v0,4096(v1)
9d007c48:	24040001 	li	a0,1
9d007c4c:	7c820844 	ins	v0,a0,0x1,0x1
9d007c50:	ac621000 	sw	v0,4096(v1)

  // IPC0CLR = 31 << 24;               // step 4: clear 5 priority and subp bits for INT0
  // IPC0 |= 24 << 24;                 // step 4: set INT0 to priority 6 subpriority 0
  IPC0bits.INT0IP = 6;
9d007c54:	3c03bf88 	lui	v1,0xbf88
9d007c58:	8c621090 	lw	v0,4240(v1)
9d007c5c:	24040006 	li	a0,6
9d007c60:	7c82e684 	ins	v0,a0,0x1a,0x3
9d007c64:	ac621090 	sw	v0,4240(v1)
  IPC0bits.INT0IS = 0;
9d007c68:	3c03bf88 	lui	v1,0xbf88
9d007c6c:	8c621090 	lw	v0,4240(v1)
9d007c70:	7c02ce04 	ins	v0,zero,0x18,0x2
9d007c74:	ac621090 	sw	v0,4240(v1)


  // IPC1CLR = 0x1F << 24;             // step 4: clear 5 priority and subp bits for INT1
  // IPC1 |= 0x18 << 24;               // step 4: set INT1 to priority 6 subpriority 0
  IPC1bits.INT1IP = 6;
9d007c78:	3c03bf88 	lui	v1,0xbf88
9d007c7c:	8c6210a0 	lw	v0,4256(v1)
9d007c80:	24040006 	li	a0,6
9d007c84:	7c82e684 	ins	v0,a0,0x1a,0x3
9d007c88:	ac6210a0 	sw	v0,4256(v1)
  IPC1bits.INT1IS = 0;
9d007c8c:	3c03bf88 	lui	v1,0xbf88
9d007c90:	8c6210a0 	lw	v0,4256(v1)
9d007c94:	7c02ce04 	ins	v0,zero,0x18,0x2
9d007c98:	ac6210a0 	sw	v0,4256(v1)


  IFS0bits.INT0IF = 0;              // step 5: clear INT0 flag status
9d007c9c:	3c03bf88 	lui	v1,0xbf88
9d007ca0:	8c621030 	lw	v0,4144(v1)
9d007ca4:	7c0218c4 	ins	v0,zero,0x3,0x1
9d007ca8:	ac621030 	sw	v0,4144(v1)
  IFS0bits.INT1IF = 0;              // step 5: clear INT1 flag status
9d007cac:	3c03bf88 	lui	v1,0xbf88
9d007cb0:	8c621030 	lw	v0,4144(v1)
9d007cb4:	7c024204 	ins	v0,zero,0x8,0x1
9d007cb8:	ac621030 	sw	v0,4144(v1)


  // IEC0SET = 0x88;                   // step 6: enable INT0 and INT1 interrupts
  IEC0bits.INT0IE = 1;
9d007cbc:	3c03bf88 	lui	v1,0xbf88
9d007cc0:	8c621060 	lw	v0,4192(v1)
9d007cc4:	24040001 	li	a0,1
9d007cc8:	7c8218c4 	ins	v0,a0,0x3,0x1
9d007ccc:	ac621060 	sw	v0,4192(v1)
  IEC0bits.INT1IE = 1;
9d007cd0:	3c03bf88 	lui	v1,0xbf88
9d007cd4:	8c621060 	lw	v0,4192(v1)
9d007cd8:	24040001 	li	a0,1
9d007cdc:	7c824204 	ins	v0,a0,0x8,0x1
9d007ce0:	ac621060 	sw	v0,4192(v1)

  __builtin_enable_interrupts();    // step 7: enable interrupts
9d007ce4:	41626020 	ei	v0
  while(1) {
    delay();                        // delay, so results sent back at reasonable rate
9d007ce8:	0f401f9c 	jal	9d007e70 <delay>
9d007cec:	00000000 	nop
    _CP0_SET_COUNT(0);              // start timing
9d007cf0:	00001025 	move	v0,zero
9d007cf4:	40824800 	mtc0	v0,c0_count
9d007cf8:	000000c0 	ehb
    IFS0bits.INT0IF = 1;            // artificially set the INT0 interrupt flag
9d007cfc:	3c03bf88 	lui	v1,0xbf88
9d007d00:	8c621030 	lw	v0,4144(v1)
9d007d04:	24040001 	li	a0,1
9d007d08:	7c8218c4 	ins	v0,a0,0x3,0x1
9d007d0c:	ac621030 	sw	v0,4144(v1)
    while(IFS0bits.INT0IF) {
9d007d10:	00000000 	nop
9d007d14:	3c02bf88 	lui	v0,0xbf88
9d007d18:	8c421030 	lw	v0,4144(v0)
9d007d1c:	7c4200c0 	ext	v0,v0,0x3,0x1
9d007d20:	304200ff 	andi	v0,v0,0xff
9d007d24:	1440fffb 	bnez	v0,9d007d14 <main+0x12c>
9d007d28:	00000000 	nop
        ;                           // wait until the ISR clears the flag
    }
    dt = _CP0_GET_COUNT();          // get elapsed time
9d007d2c:	40024800 	mfc0	v0,c0_count
9d007d30:	afc20018 	sw	v0,24(s8)
    __builtin_disable_interrupts(); // good practice before using vars shared w/ISR
9d007d34:	41626000 	di	v0
9d007d38:	000000c0 	ehb
9d007d3c:	00000000 	nop
    encopy = Entered;               // copy the shared variables to local copies ...
9d007d40:	8f828010 	lw	v0,-32752(gp)
9d007d44:	afc2001c 	sw	v0,28(s8)
    excopy = Exited;                // ... so the time interrupts are off is short
9d007d48:	8f828014 	lw	v0,-32748(gp)
9d007d4c:	afc20020 	sw	v0,32(s8)
    __builtin_enable_interrupts();  // turn interrupts back on quickly!
9d007d50:	41626020 	ei	v0
    sprintf(msg,"IPL6SOFT in %3d out %3d total %3d time %4d ns\r\n"
9d007d54:	8fc30018 	lw	v1,24(s8)
9d007d58:	00601025 	move	v0,v1
9d007d5c:	00021040 	sll	v0,v0,0x1
9d007d60:	00431021 	addu	v0,v0,v1
9d007d64:	000210c0 	sll	v0,v0,0x3
9d007d68:	00431021 	addu	v0,v0,v1
9d007d6c:	27c30024 	addiu	v1,s8,36
9d007d70:	afa20014 	sw	v0,20(sp)
9d007d74:	8fc20018 	lw	v0,24(s8)
9d007d78:	afa20010 	sw	v0,16(sp)
9d007d7c:	8fc70020 	lw	a3,32(s8)
9d007d80:	8fc6001c 	lw	a2,28(s8)
9d007d84:	3c029d01 	lui	v0,0x9d01
9d007d88:	24459150 	addiu	a1,v0,-28336
9d007d8c:	00602025 	move	a0,v1
9d007d90:	0f402545 	jal	9d009514 <_dsprintf_dn>
9d007d94:	00000000 	nop
        ,encopy,excopy,dt,dt*25);
    NU32DIP_WriteUART1(msg);           // send times to the host
9d007d98:	27c20024 	addiu	v0,s8,36
9d007d9c:	00402025 	move	a0,v0
9d007da0:	0f402222 	jal	9d008888 <NU32DIP_WriteUART1>
9d007da4:	00000000 	nop

    delay();                        // same as above, except for INT1
9d007da8:	0f401f9c 	jal	9d007e70 <delay>
9d007dac:	00000000 	nop
    _CP0_SET_COUNT(0);
9d007db0:	00001025 	move	v0,zero
9d007db4:	40824800 	mtc0	v0,c0_count
9d007db8:	000000c0 	ehb
    IFS0bits.INT1IF = 1;            // trigger INT1 interrupt
9d007dbc:	3c03bf88 	lui	v1,0xbf88
9d007dc0:	8c621030 	lw	v0,4144(v1)
9d007dc4:	24040001 	li	a0,1
9d007dc8:	7c824204 	ins	v0,a0,0x8,0x1
9d007dcc:	ac621030 	sw	v0,4144(v1)
    while(IFS0bits.INT1IF) {
9d007dd0:	00000000 	nop
9d007dd4:	3c02bf88 	lui	v0,0xbf88
9d007dd8:	8c421030 	lw	v0,4144(v0)
9d007ddc:	7c420200 	ext	v0,v0,0x8,0x1
9d007de0:	304200ff 	andi	v0,v0,0xff
9d007de4:	1440fffb 	bnez	v0,9d007dd4 <main+0x1ec>
9d007de8:	00000000 	nop
        ;                           // wait until the ISR clears the flag
    }
    dt = _CP0_GET_COUNT();
9d007dec:	40024800 	mfc0	v0,c0_count
9d007df0:	afc20018 	sw	v0,24(s8)
    __builtin_disable_interrupts(); 
9d007df4:	41626000 	di	v0
9d007df8:	000000c0 	ehb
9d007dfc:	00000000 	nop
    encopy = Entered;               
9d007e00:	8f828010 	lw	v0,-32752(gp)
9d007e04:	afc2001c 	sw	v0,28(s8)
    excopy = Exited;
9d007e08:	8f828014 	lw	v0,-32748(gp)
9d007e0c:	afc20020 	sw	v0,32(s8)
    __builtin_enable_interrupts();  
9d007e10:	41626020 	ei	v0
    sprintf(msg," IPL6SRS in %3d out %3d total %3d time %4d ns\r\n"
9d007e14:	8fc30018 	lw	v1,24(s8)
9d007e18:	00601025 	move	v0,v1
9d007e1c:	00021040 	sll	v0,v0,0x1
9d007e20:	00431021 	addu	v0,v0,v1
9d007e24:	000210c0 	sll	v0,v0,0x3
9d007e28:	00431021 	addu	v0,v0,v1
9d007e2c:	27c30024 	addiu	v1,s8,36
9d007e30:	afa20014 	sw	v0,20(sp)
9d007e34:	8fc20018 	lw	v0,24(s8)
9d007e38:	afa20010 	sw	v0,16(sp)
9d007e3c:	8fc70020 	lw	a3,32(s8)
9d007e40:	8fc6001c 	lw	a2,28(s8)
9d007e44:	3c029d01 	lui	v0,0x9d01
9d007e48:	24459180 	addiu	a1,v0,-28288
9d007e4c:	00602025 	move	a0,v1
9d007e50:	0f402545 	jal	9d009514 <_dsprintf_dn>
9d007e54:	00000000 	nop
        ,encopy,excopy,dt,dt*25);
    NU32DIP_WriteUART1(msg);
9d007e58:	27c20024 	addiu	v0,s8,36
9d007e5c:	00402025 	move	a0,v0
9d007e60:	0f402222 	jal	9d008888 <NU32DIP_WriteUART1>
9d007e64:	00000000 	nop
    delay();                        // delay, so results sent back at reasonable rate
9d007e68:	1000ff9f 	b	9d007ce8 <main+0x100>
9d007e6c:	00000000 	nop

9d007e70 <delay>:
  }
  return 0;
}

void delay() {
9d007e70:	27bdfff8 	addiu	sp,sp,-8
9d007e74:	afbf0004 	sw	ra,4(sp)
9d007e78:	afbe0000 	sw	s8,0(sp)
9d007e7c:	03a0f025 	move	s8,sp
  _CP0_SET_COUNT(0);
9d007e80:	00001025 	move	v0,zero
9d007e84:	40824800 	mtc0	v0,c0_count
9d007e88:	000000c0 	ehb
  while(_CP0_GET_COUNT() < DELAYTIME) {
9d007e8c:	00000000 	nop
9d007e90:	40034800 	mfc0	v1,c0_count
9d007e94:	3c020262 	lui	v0,0x262
9d007e98:	34425a00 	ori	v0,v0,0x5a00
9d007e9c:	0062102b 	sltu	v0,v1,v0
9d007ea0:	1440fffb 	bnez	v0,9d007e90 <delay+0x20>
9d007ea4:	00000000 	nop
      ;
  }
}
9d007ea8:	00000000 	nop
9d007eac:	03c0e825 	move	sp,s8
9d007eb0:	8fbf0004 	lw	ra,4(sp)
9d007eb4:	8fbe0000 	lw	s8,0(sp)
9d007eb8:	27bd0008 	addiu	sp,sp,8
9d007ebc:	03e00008 	jr	ra
9d007ec0:	00000000 	nop

9d007ec4 <__udivdi3>:
9d007ec4:	00c04025 	move	t0,a2
9d007ec8:	00e01825 	move	v1,a3
9d007ecc:	00805025 	move	t2,a0
9d007ed0:	14e00098 	bnez	a3,9d008134 <__udivdi3+0x270>
9d007ed4:	00a01025 	move	v0,a1
9d007ed8:	00a6302b 	sltu	a2,a1,a2
9d007edc:	10c00035 	beqz	a2,9d007fb4 <__udivdi3+0xf0>
9d007ee0:	00000000 	nop
9d007ee4:	71052820 	clz	a1,t0
9d007ee8:	10a00006 	beqz	a1,9d007f04 <__udivdi3+0x40>
9d007eec:	00052023 	negu	a0,a1
9d007ef0:	008a2006 	srlv	a0,t2,a0
9d007ef4:	00a21004 	sllv	v0,v0,a1
9d007ef8:	00a84004 	sllv	t0,t0,a1
9d007efc:	00821025 	or	v0,a0,v0
9d007f00:	00aa5004 	sllv	t2,t2,a1
9d007f04:	00083402 	srl	a2,t0,0x10
9d007f08:	0046001b 	divu	zero,v0,a2
9d007f0c:	00c001f4 	teq	a2,zero,0x7
9d007f10:	3105ffff 	andi	a1,t0,0xffff
9d007f14:	000a2402 	srl	a0,t2,0x10
9d007f18:	00003812 	mflo	a3
9d007f1c:	00001010 	mfhi	v0
9d007f20:	00021400 	sll	v0,v0,0x10
9d007f24:	00442025 	or	a0,v0,a0
9d007f28:	70a74802 	mul	t1,a1,a3
9d007f2c:	0089582b 	sltu	t3,a0,t1
9d007f30:	1160000a 	beqz	t3,9d007f5c <__udivdi3+0x98>
9d007f34:	00e01025 	move	v0,a3
9d007f38:	00882021 	addu	a0,a0,t0
9d007f3c:	0088582b 	sltu	t3,a0,t0
9d007f40:	15600006 	bnez	t3,9d007f5c <__udivdi3+0x98>
9d007f44:	24e2ffff 	addiu	v0,a3,-1
9d007f48:	0089582b 	sltu	t3,a0,t1
9d007f4c:	51600004 	beqzl	t3,9d007f60 <__udivdi3+0x9c>
9d007f50:	00892023 	subu	a0,a0,t1
9d007f54:	24e2fffe 	addiu	v0,a3,-2
9d007f58:	00882021 	addu	a0,a0,t0
9d007f5c:	00892023 	subu	a0,a0,t1
9d007f60:	0086001b 	divu	zero,a0,a2
9d007f64:	00c001f4 	teq	a2,zero,0x7
9d007f68:	00003010 	mfhi	a2
9d007f6c:	00063400 	sll	a2,a2,0x10
9d007f70:	00002012 	mflo	a0
9d007f74:	70a43802 	mul	a3,a1,a0
9d007f78:	3145ffff 	andi	a1,t2,0xffff
9d007f7c:	00c52825 	or	a1,a2,a1
9d007f80:	00a7482b 	sltu	t1,a1,a3
9d007f84:	11200008 	beqz	t1,9d007fa8 <__udivdi3+0xe4>
9d007f88:	00803025 	move	a2,a0
9d007f8c:	01052821 	addu	a1,t0,a1
9d007f90:	00a8402b 	sltu	t0,a1,t0
9d007f94:	15000004 	bnez	t0,9d007fa8 <__udivdi3+0xe4>
9d007f98:	2486ffff 	addiu	a2,a0,-1
9d007f9c:	00a7282b 	sltu	a1,a1,a3
9d007fa0:	54a00001 	bnezl	a1,9d007fa8 <__udivdi3+0xe4>
9d007fa4:	2486fffe 	addiu	a2,a0,-2
9d007fa8:	00021400 	sll	v0,v0,0x10
9d007fac:	03e00008 	jr	ra
9d007fb0:	00461025 	or	v0,v0,a2
9d007fb4:	15000004 	bnez	t0,9d007fc8 <__udivdi3+0x104>
9d007fb8:	24020001 	li	v0,1
9d007fbc:	0048001b 	divu	zero,v0,t0
9d007fc0:	010001f4 	teq	t0,zero,0x7
9d007fc4:	00004012 	mflo	t0
9d007fc8:	710b5820 	clz	t3,t0
9d007fcc:	15600023 	bnez	t3,9d00805c <__udivdi3+0x198>
9d007fd0:	24070020 	li	a3,32
9d007fd4:	00a82823 	subu	a1,a1,t0
9d007fd8:	24030001 	li	v1,1
9d007fdc:	00083402 	srl	a2,t0,0x10
9d007fe0:	00a6001b 	divu	zero,a1,a2
9d007fe4:	00c001f4 	teq	a2,zero,0x7
9d007fe8:	3107ffff 	andi	a3,t0,0xffff
9d007fec:	000a2402 	srl	a0,t2,0x10
9d007ff0:	00002812 	mflo	a1
9d007ff4:	00001010 	mfhi	v0
9d007ff8:	00021400 	sll	v0,v0,0x10
9d007ffc:	00442025 	or	a0,v0,a0
9d008000:	70e54802 	mul	t1,a3,a1
9d008004:	0089582b 	sltu	t3,a0,t1
9d008008:	1160000a 	beqz	t3,9d008034 <__udivdi3+0x170>
9d00800c:	00a01025 	move	v0,a1
9d008010:	00882021 	addu	a0,a0,t0
9d008014:	0088582b 	sltu	t3,a0,t0
9d008018:	15600006 	bnez	t3,9d008034 <__udivdi3+0x170>
9d00801c:	24a2ffff 	addiu	v0,a1,-1
9d008020:	0089582b 	sltu	t3,a0,t1
9d008024:	51600004 	beqzl	t3,9d008038 <__udivdi3+0x174>
9d008028:	00892023 	subu	a0,a0,t1
9d00802c:	24a2fffe 	addiu	v0,a1,-2
9d008030:	00882021 	addu	a0,a0,t0
9d008034:	00892023 	subu	a0,a0,t1
9d008038:	0086001b 	divu	zero,a0,a2
9d00803c:	00c001f4 	teq	a2,zero,0x7
9d008040:	314affff 	andi	t2,t2,0xffff
9d008044:	00002810 	mfhi	a1
9d008048:	00052c00 	sll	a1,a1,0x10
9d00804c:	00aa2825 	or	a1,a1,t2
9d008050:	00002012 	mflo	a0
9d008054:	1000ffca 	b	9d007f80 <__udivdi3+0xbc>
9d008058:	70e43802 	mul	a3,a3,a0
9d00805c:	00eb3823 	subu	a3,a3,t3
9d008060:	01684004 	sllv	t0,t0,t3
9d008064:	00e44806 	srlv	t1,a0,a3
9d008068:	00083402 	srl	a2,t0,0x10
9d00806c:	00e53806 	srlv	a3,a1,a3
9d008070:	00e6001b 	divu	zero,a3,a2
9d008074:	00c001f4 	teq	a2,zero,0x7
9d008078:	01651004 	sllv	v0,a1,t3
9d00807c:	01224825 	or	t1,t1,v0
9d008080:	3102ffff 	andi	v0,t0,0xffff
9d008084:	00091c02 	srl	v1,t1,0x10
9d008088:	00002812 	mflo	a1
9d00808c:	00003810 	mfhi	a3
9d008090:	00073c00 	sll	a3,a3,0x10
9d008094:	00e33825 	or	a3,a3,v1
9d008098:	70455002 	mul	t2,v0,a1
9d00809c:	00ea602b 	sltu	t4,a3,t2
9d0080a0:	1180000a 	beqz	t4,9d0080cc <__udivdi3+0x208>
9d0080a4:	00a01825 	move	v1,a1
9d0080a8:	00e83821 	addu	a3,a3,t0
9d0080ac:	00e8602b 	sltu	t4,a3,t0
9d0080b0:	15800006 	bnez	t4,9d0080cc <__udivdi3+0x208>
9d0080b4:	24a3ffff 	addiu	v1,a1,-1
9d0080b8:	00ea602b 	sltu	t4,a3,t2
9d0080bc:	51800004 	beqzl	t4,9d0080d0 <__udivdi3+0x20c>
9d0080c0:	00ea3823 	subu	a3,a3,t2
9d0080c4:	24a3fffe 	addiu	v1,a1,-2
9d0080c8:	00e83821 	addu	a3,a3,t0
9d0080cc:	00ea3823 	subu	a3,a3,t2
9d0080d0:	00e6001b 	divu	zero,a3,a2
9d0080d4:	00c001f4 	teq	a2,zero,0x7
9d0080d8:	3125ffff 	andi	a1,t1,0xffff
9d0080dc:	00003012 	mflo	a2
9d0080e0:	00003810 	mfhi	a3
9d0080e4:	00073c00 	sll	a3,a3,0x10
9d0080e8:	00e52825 	or	a1,a3,a1
9d0080ec:	70461002 	mul	v0,v0,a2
9d0080f0:	00a2482b 	sltu	t1,a1,v0
9d0080f4:	1120000a 	beqz	t1,9d008120 <__udivdi3+0x25c>
9d0080f8:	00c03825 	move	a3,a2
9d0080fc:	00a82821 	addu	a1,a1,t0
9d008100:	00a8482b 	sltu	t1,a1,t0
9d008104:	15200006 	bnez	t1,9d008120 <__udivdi3+0x25c>
9d008108:	24c7ffff 	addiu	a3,a2,-1
9d00810c:	00a2482b 	sltu	t1,a1,v0
9d008110:	51200004 	beqzl	t1,9d008124 <__udivdi3+0x260>
9d008114:	00031c00 	sll	v1,v1,0x10
9d008118:	24c7fffe 	addiu	a3,a2,-2
9d00811c:	00a82821 	addu	a1,a1,t0
9d008120:	00031c00 	sll	v1,v1,0x10
9d008124:	01645004 	sllv	t2,a0,t3
9d008128:	00a22823 	subu	a1,a1,v0
9d00812c:	1000ffab 	b	9d007fdc <__udivdi3+0x118>
9d008130:	00671825 	or	v1,v1,a3
9d008134:	00a7402b 	sltu	t0,a1,a3
9d008138:	00001825 	move	v1,zero
9d00813c:	1500004e 	bnez	t0,9d008278 <__udivdi3+0x3b4>
9d008140:	00001025 	move	v0,zero
9d008144:	70ea5020 	clz	t2,a3
9d008148:	15400007 	bnez	t2,9d008168 <__udivdi3+0x2a4>
9d00814c:	24090020 	li	t1,32
9d008150:	00e5282b 	sltu	a1,a3,a1
9d008154:	14a00048 	bnez	a1,9d008278 <__udivdi3+0x3b4>
9d008158:	24020001 	li	v0,1
9d00815c:	0086102b 	sltu	v0,a0,a2
9d008160:	03e00008 	jr	ra
9d008164:	38420001 	xori	v0,v0,0x1
9d008168:	012a4823 	subu	t1,t1,t2
9d00816c:	01261006 	srlv	v0,a2,t1
9d008170:	01473804 	sllv	a3,a3,t2
9d008174:	00473825 	or	a3,v0,a3
9d008178:	01451804 	sllv	v1,a1,t2
9d00817c:	00074402 	srl	t0,a3,0x10
9d008180:	01252806 	srlv	a1,a1,t1
9d008184:	00a8001b 	divu	zero,a1,t0
9d008188:	010001f4 	teq	t0,zero,0x7
9d00818c:	30ebffff 	andi	t3,a3,0xffff
9d008190:	01241006 	srlv	v0,a0,t1
9d008194:	00431025 	or	v0,v0,v1
9d008198:	00021c02 	srl	v1,v0,0x10
9d00819c:	00002812 	mflo	a1
9d0081a0:	00004810 	mfhi	t1
9d0081a4:	00094c00 	sll	t1,t1,0x10
9d0081a8:	01234825 	or	t1,t1,v1
9d0081ac:	71656002 	mul	t4,t3,a1
9d0081b0:	012c682b 	sltu	t5,t1,t4
9d0081b4:	11a0000a 	beqz	t5,9d0081e0 <__udivdi3+0x31c>
9d0081b8:	00a01825 	move	v1,a1
9d0081bc:	01274821 	addu	t1,t1,a3
9d0081c0:	0127682b 	sltu	t5,t1,a3
9d0081c4:	15a00006 	bnez	t5,9d0081e0 <__udivdi3+0x31c>
9d0081c8:	24a3ffff 	addiu	v1,a1,-1
9d0081cc:	012c682b 	sltu	t5,t1,t4
9d0081d0:	51a00004 	beqzl	t5,9d0081e4 <__udivdi3+0x320>
9d0081d4:	012c4823 	subu	t1,t1,t4
9d0081d8:	24a3fffe 	addiu	v1,a1,-2
9d0081dc:	01274821 	addu	t1,t1,a3
9d0081e0:	012c4823 	subu	t1,t1,t4
9d0081e4:	0128001b 	divu	zero,t1,t0
9d0081e8:	010001f4 	teq	t0,zero,0x7
9d0081ec:	3045ffff 	andi	a1,v0,0xffff
9d0081f0:	00004012 	mflo	t0
9d0081f4:	00004810 	mfhi	t1
9d0081f8:	00094c00 	sll	t1,t1,0x10
9d0081fc:	01252825 	or	a1,t1,a1
9d008200:	71685802 	mul	t3,t3,t0
9d008204:	00ab102b 	sltu	v0,a1,t3
9d008208:	1040000a 	beqz	v0,9d008234 <__udivdi3+0x370>
9d00820c:	01004825 	move	t1,t0
9d008210:	00a72821 	addu	a1,a1,a3
9d008214:	00a7102b 	sltu	v0,a1,a3
9d008218:	14400006 	bnez	v0,9d008234 <__udivdi3+0x370>
9d00821c:	2509ffff 	addiu	t1,t0,-1
9d008220:	00ab102b 	sltu	v0,a1,t3
9d008224:	10400004 	beqz	v0,9d008238 <__udivdi3+0x374>
9d008228:	00031400 	sll	v0,v1,0x10
9d00822c:	2509fffe 	addiu	t1,t0,-2
9d008230:	00a72821 	addu	a1,a1,a3
9d008234:	00031400 	sll	v0,v1,0x10
9d008238:	01463004 	sllv	a2,a2,t2
9d00823c:	00491025 	or	v0,v0,t1
9d008240:	00c20019 	multu	a2,v0
9d008244:	00ab2823 	subu	a1,a1,t3
9d008248:	00003810 	mfhi	a3
9d00824c:	00a7182b 	sltu	v1,a1,a3
9d008250:	14600007 	bnez	v1,9d008270 <__udivdi3+0x3ac>
9d008254:	00003012 	mflo	a2
9d008258:	14a70007 	bne	a1,a3,9d008278 <__udivdi3+0x3b4>
9d00825c:	00001825 	move	v1,zero
9d008260:	01442004 	sllv	a0,a0,t2
9d008264:	0086202b 	sltu	a0,a0,a2
9d008268:	10800003 	beqz	a0,9d008278 <__udivdi3+0x3b4>
9d00826c:	00000000 	nop
9d008270:	2442ffff 	addiu	v0,v0,-1
9d008274:	00001825 	move	v1,zero
9d008278:	03e00008 	jr	ra
9d00827c:	00000000 	nop

Disassembly of section .text:

9d008280 <__umoddi3>:
9d008280:	00c04825 	move	t1,a2
9d008284:	00801025 	move	v0,a0
9d008288:	14e0008b 	bnez	a3,9d0084b8 <__umoddi3+0x238>
9d00828c:	00a01825 	move	v1,a1
9d008290:	00a6302b 	sltu	a2,a1,a2
9d008294:	10c00033 	beqz	a2,9d008364 <__umoddi3+0xe4>
9d008298:	712a5020 	clz	t2,t1
9d00829c:	11400008 	beqz	t2,9d0082c0 <__umoddi3+0x40>
9d0082a0:	00095c02 	srl	t3,t1,0x10
9d0082a4:	01451804 	sllv	v1,a1,t2
9d0082a8:	000a2823 	negu	a1,t2
9d0082ac:	00a42806 	srlv	a1,a0,a1
9d0082b0:	01494804 	sllv	t1,t1,t2
9d0082b4:	00a31825 	or	v1,a1,v1
9d0082b8:	01441004 	sllv	v0,a0,t2
9d0082bc:	00095c02 	srl	t3,t1,0x10
9d0082c0:	006b001b 	divu	zero,v1,t3
9d0082c4:	016001f4 	teq	t3,zero,0x7
9d0082c8:	3124ffff 	andi	a0,t1,0xffff
9d0082cc:	00001812 	mflo	v1
9d0082d0:	00002810 	mfhi	a1
9d0082d4:	70643002 	mul	a2,v1,a0
9d0082d8:	00051c00 	sll	v1,a1,0x10
9d0082dc:	00022c02 	srl	a1,v0,0x10
9d0082e0:	00651825 	or	v1,v1,a1
9d0082e4:	0066282b 	sltu	a1,v1,a2
9d0082e8:	50a00008 	beqzl	a1,9d00830c <__umoddi3+0x8c>
9d0082ec:	00661823 	subu	v1,v1,a2
9d0082f0:	00691821 	addu	v1,v1,t1
9d0082f4:	0069282b 	sltu	a1,v1,t1
9d0082f8:	14a00003 	bnez	a1,9d008308 <__umoddi3+0x88>
9d0082fc:	0066282b 	sltu	a1,v1,a2
9d008300:	54a00001 	bnezl	a1,9d008308 <__umoddi3+0x88>
9d008304:	00691821 	addu	v1,v1,t1
9d008308:	00661823 	subu	v1,v1,a2
9d00830c:	006b001b 	divu	zero,v1,t3
9d008310:	016001f4 	teq	t3,zero,0x7
9d008314:	3042ffff 	andi	v0,v0,0xffff
9d008318:	00003010 	mfhi	a2
9d00831c:	00001812 	mflo	v1
9d008320:	70645802 	mul	t3,v1,a0
9d008324:	00061c00 	sll	v1,a2,0x10
9d008328:	00621025 	or	v0,v1,v0
9d00832c:	004b182b 	sltu	v1,v0,t3
9d008330:	50600009 	beqzl	v1,9d008358 <__umoddi3+0xd8>
9d008334:	004b1023 	subu	v0,v0,t3
9d008338:	00491021 	addu	v0,v0,t1
9d00833c:	0049182b 	sltu	v1,v0,t1
9d008340:	54600005 	bnezl	v1,9d008358 <__umoddi3+0xd8>
9d008344:	004b1023 	subu	v0,v0,t3
9d008348:	004b182b 	sltu	v1,v0,t3
9d00834c:	54600001 	bnezl	v1,9d008354 <__umoddi3+0xd4>
9d008350:	00491021 	addu	v0,v0,t1
9d008354:	004b1023 	subu	v0,v0,t3
9d008358:	01421006 	srlv	v0,v0,t2
9d00835c:	03e00008 	jr	ra
9d008360:	00001825 	move	v1,zero
9d008364:	15200004 	bnez	t1,9d008378 <__umoddi3+0xf8>
9d008368:	24030001 	li	v1,1
9d00836c:	0069001b 	divu	zero,v1,t1
9d008370:	012001f4 	teq	t1,zero,0x7
9d008374:	00004812 	mflo	t1
9d008378:	712a5020 	clz	t2,t1
9d00837c:	1540001f 	bnez	t2,9d0083fc <__umoddi3+0x17c>
9d008380:	24070020 	li	a3,32
9d008384:	00a92823 	subu	a1,a1,t1
9d008388:	00095c02 	srl	t3,t1,0x10
9d00838c:	00ab001b 	divu	zero,a1,t3
9d008390:	016001f4 	teq	t3,zero,0x7
9d008394:	3124ffff 	andi	a0,t1,0xffff
9d008398:	00002812 	mflo	a1
9d00839c:	00001810 	mfhi	v1
9d0083a0:	70a43002 	mul	a2,a1,a0
9d0083a4:	00032c00 	sll	a1,v1,0x10
9d0083a8:	00021c02 	srl	v1,v0,0x10
9d0083ac:	00a32825 	or	a1,a1,v1
9d0083b0:	00a6182b 	sltu	v1,a1,a2
9d0083b4:	50600008 	beqzl	v1,9d0083d8 <__umoddi3+0x158>
9d0083b8:	00a63023 	subu	a2,a1,a2
9d0083bc:	00a92821 	addu	a1,a1,t1
9d0083c0:	00a9182b 	sltu	v1,a1,t1
9d0083c4:	14600003 	bnez	v1,9d0083d4 <__umoddi3+0x154>
9d0083c8:	00a6182b 	sltu	v1,a1,a2
9d0083cc:	54600001 	bnezl	v1,9d0083d4 <__umoddi3+0x154>
9d0083d0:	00a92821 	addu	a1,a1,t1
9d0083d4:	00a63023 	subu	a2,a1,a2
9d0083d8:	00cb001b 	divu	zero,a2,t3
9d0083dc:	016001f4 	teq	t3,zero,0x7
9d0083e0:	3042ffff 	andi	v0,v0,0xffff
9d0083e4:	00002810 	mfhi	a1
9d0083e8:	00003012 	mflo	a2
9d0083ec:	70c45802 	mul	t3,a2,a0
9d0083f0:	00053400 	sll	a2,a1,0x10
9d0083f4:	1000ffcd 	b	9d00832c <__umoddi3+0xac>
9d0083f8:	00c21025 	or	v0,a2,v0
9d0083fc:	00ea3823 	subu	a3,a3,t2
9d008400:	01494804 	sllv	t1,t1,t2
9d008404:	00e41806 	srlv	v1,a0,a3
9d008408:	00093402 	srl	a2,t1,0x10
9d00840c:	00e53806 	srlv	a3,a1,a3
9d008410:	00e6001b 	divu	zero,a3,a2
9d008414:	00c001f4 	teq	a2,zero,0x7
9d008418:	01451004 	sllv	v0,a1,t2
9d00841c:	3128ffff 	andi	t0,t1,0xffff
9d008420:	00621825 	or	v1,v1,v0
9d008424:	00032c02 	srl	a1,v1,0x10
9d008428:	00003812 	mflo	a3
9d00842c:	00006010 	mfhi	t4
9d008430:	70e81002 	mul	v0,a3,t0
9d008434:	000c3c00 	sll	a3,t4,0x10
9d008438:	00e53825 	or	a3,a3,a1
9d00843c:	00e2282b 	sltu	a1,a3,v0
9d008440:	50a00008 	beqzl	a1,9d008464 <__umoddi3+0x1e4>
9d008444:	00e23823 	subu	a3,a3,v0
9d008448:	00e93821 	addu	a3,a3,t1
9d00844c:	00e9282b 	sltu	a1,a3,t1
9d008450:	14a00003 	bnez	a1,9d008460 <__umoddi3+0x1e0>
9d008454:	00e2282b 	sltu	a1,a3,v0
9d008458:	54a00001 	bnezl	a1,9d008460 <__umoddi3+0x1e0>
9d00845c:	00e93821 	addu	a3,a3,t1
9d008460:	00e23823 	subu	a3,a3,v0
9d008464:	00e6001b 	divu	zero,a3,a2
9d008468:	00c001f4 	teq	a2,zero,0x7
9d00846c:	3065ffff 	andi	a1,v1,0xffff
9d008470:	00003012 	mflo	a2
9d008474:	00003810 	mfhi	a3
9d008478:	00073c00 	sll	a3,a3,0x10
9d00847c:	00e52825 	or	a1,a3,a1
9d008480:	70c83002 	mul	a2,a2,t0
9d008484:	00a6102b 	sltu	v0,a1,a2
9d008488:	10400009 	beqz	v0,9d0084b0 <__umoddi3+0x230>
9d00848c:	01441004 	sllv	v0,a0,t2
9d008490:	00a92821 	addu	a1,a1,t1
9d008494:	00a9102b 	sltu	v0,a1,t1
9d008498:	14400005 	bnez	v0,9d0084b0 <__umoddi3+0x230>
9d00849c:	01441004 	sllv	v0,a0,t2
9d0084a0:	00a6102b 	sltu	v0,a1,a2
9d0084a4:	54400001 	bnezl	v0,9d0084ac <__umoddi3+0x22c>
9d0084a8:	00a92821 	addu	a1,a1,t1
9d0084ac:	01441004 	sllv	v0,a0,t2
9d0084b0:	1000ffb5 	b	9d008388 <__umoddi3+0x108>
9d0084b4:	00a62823 	subu	a1,a1,a2
9d0084b8:	00a7402b 	sltu	t0,a1,a3
9d0084bc:	1500005c 	bnez	t0,9d008630 <__umoddi3+0x3b0>
9d0084c0:	70ee7020 	clz	t6,a3
9d0084c4:	15c0000a 	bnez	t6,9d0084f0 <__umoddi3+0x270>
9d0084c8:	00e5402b 	sltu	t0,a3,a1
9d0084cc:	15000003 	bnez	t0,9d0084dc <__umoddi3+0x25c>
9d0084d0:	0086402b 	sltu	t0,a0,a2
9d0084d4:	15000056 	bnez	t0,9d008630 <__umoddi3+0x3b0>
9d0084d8:	00000000 	nop
9d0084dc:	00861023 	subu	v0,a0,a2
9d0084e0:	00a72823 	subu	a1,a1,a3
9d0084e4:	0082182b 	sltu	v1,a0,v0
9d0084e8:	03e00008 	jr	ra
9d0084ec:	00a31823 	subu	v1,a1,v1
9d0084f0:	240b0020 	li	t3,32
9d0084f4:	016e5823 	subu	t3,t3,t6
9d0084f8:	01666006 	srlv	t4,a2,t3
9d0084fc:	01c73804 	sllv	a3,a3,t6
9d008500:	01873825 	or	a3,t4,a3
9d008504:	01c54004 	sllv	t0,a1,t6
9d008508:	00074c02 	srl	t1,a3,0x10
9d00850c:	01652806 	srlv	a1,a1,t3
9d008510:	00a9001b 	divu	zero,a1,t1
9d008514:	012001f4 	teq	t1,zero,0x7
9d008518:	01641006 	srlv	v0,a0,t3
9d00851c:	00481025 	or	v0,v0,t0
9d008520:	30e8ffff 	andi	t0,a3,0xffff
9d008524:	00026402 	srl	t4,v0,0x10
9d008528:	00002812 	mflo	a1
9d00852c:	00005010 	mfhi	t2
9d008530:	000a5400 	sll	t2,t2,0x10
9d008534:	014c5025 	or	t2,t2,t4
9d008538:	71051802 	mul	v1,t0,a1
9d00853c:	0143602b 	sltu	t4,t2,v1
9d008540:	1180000a 	beqz	t4,9d00856c <__umoddi3+0x2ec>
9d008544:	00a06825 	move	t5,a1
9d008548:	01475021 	addu	t2,t2,a3
9d00854c:	0147602b 	sltu	t4,t2,a3
9d008550:	15800006 	bnez	t4,9d00856c <__umoddi3+0x2ec>
9d008554:	24adffff 	addiu	t5,a1,-1
9d008558:	0143602b 	sltu	t4,t2,v1
9d00855c:	51800004 	beqzl	t4,9d008570 <__umoddi3+0x2f0>
9d008560:	01435023 	subu	t2,t2,v1
9d008564:	24adfffe 	addiu	t5,a1,-2
9d008568:	01475021 	addu	t2,t2,a3
9d00856c:	01435023 	subu	t2,t2,v1
9d008570:	0149001b 	divu	zero,t2,t1
9d008574:	012001f4 	teq	t1,zero,0x7
9d008578:	00004812 	mflo	t1
9d00857c:	00005010 	mfhi	t2
9d008580:	000a5400 	sll	t2,t2,0x10
9d008584:	71092802 	mul	a1,t0,t1
9d008588:	3048ffff 	andi	t0,v0,0xffff
9d00858c:	01484025 	or	t0,t2,t0
9d008590:	0105102b 	sltu	v0,t0,a1
9d008594:	1040000a 	beqz	v0,9d0085c0 <__umoddi3+0x340>
9d008598:	01205025 	move	t2,t1
9d00859c:	01074021 	addu	t0,t0,a3
9d0085a0:	0107102b 	sltu	v0,t0,a3
9d0085a4:	14400006 	bnez	v0,9d0085c0 <__umoddi3+0x340>
9d0085a8:	252affff 	addiu	t2,t1,-1
9d0085ac:	0105102b 	sltu	v0,t0,a1
9d0085b0:	10400004 	beqz	v0,9d0085c4 <__umoddi3+0x344>
9d0085b4:	000d6400 	sll	t4,t5,0x10
9d0085b8:	252afffe 	addiu	t2,t1,-2
9d0085bc:	01074021 	addu	t0,t0,a3
9d0085c0:	000d6400 	sll	t4,t5,0x10
9d0085c4:	01c61004 	sllv	v0,a2,t6
9d0085c8:	018a6025 	or	t4,t4,t2
9d0085cc:	01820019 	multu	t4,v0
9d0085d0:	01054023 	subu	t0,t0,a1
9d0085d4:	01c41804 	sllv	v1,a0,t6
9d0085d8:	00006810 	mfhi	t5
9d0085dc:	010d202b 	sltu	a0,t0,t5
9d0085e0:	01a02825 	move	a1,t5
9d0085e4:	00006012 	mflo	t4
9d0085e8:	14800005 	bnez	a0,9d008600 <__umoddi3+0x380>
9d0085ec:	00003012 	mflo	a2
9d0085f0:	150d0007 	bne	t0,t5,9d008610 <__umoddi3+0x390>
9d0085f4:	006c202b 	sltu	a0,v1,t4
9d0085f8:	10800006 	beqz	a0,9d008614 <__umoddi3+0x394>
9d0085fc:	00663023 	subu	a2,v1,a2
9d008600:	01823023 	subu	a2,t4,v0
9d008604:	01a73823 	subu	a3,t5,a3
9d008608:	0186602b 	sltu	t4,t4,a2
9d00860c:	00ec2823 	subu	a1,a3,t4
9d008610:	00663023 	subu	a2,v1,a2
9d008614:	0066182b 	sltu	v1,v1,a2
9d008618:	01054023 	subu	t0,t0,a1
9d00861c:	01031823 	subu	v1,t0,v1
9d008620:	01631004 	sllv	v0,v1,t3
9d008624:	01c63006 	srlv	a2,a2,t6
9d008628:	00461025 	or	v0,v0,a2
9d00862c:	01c31806 	srlv	v1,v1,t6
9d008630:	03e00008 	jr	ra
9d008634:	00000000 	nop

9d008638 <NU32DIP_Startup>:
#include "nu32dip.h"

void NU32DIP_Startup() {
9d008638:	27bdfff8 	addiu	sp,sp,-8
9d00863c:	afbf0004 	sw	ra,4(sp)
9d008640:	afbe0000 	sw	s8,0(sp)
9d008644:	03a0f025 	move	s8,sp
    __builtin_disable_interrupts(); // disable interrupts while initializing things
9d008648:	41626000 	di	v0
9d00864c:	000000c0 	ehb
9d008650:	00000000 	nop

    // set the CP0 CONFIG register to indicate that kseg0 is cacheable (0x3)
    __builtin_mtc0(_CP0_CONFIG, _CP0_CONFIG_SELECT, 0xa4210583);
9d008654:	3c02a421 	lui	v0,0xa421
9d008658:	34420583 	ori	v0,v0,0x583
9d00865c:	40828000 	mtc0	v0,c0_config
9d008660:	000000c0 	ehb

    // 0 data RAM access wait states
    BMXCONbits.BMXWSDRM = 0x0;
9d008664:	3c03bf88 	lui	v1,0xbf88
9d008668:	8c622000 	lw	v0,8192(v1)
9d00866c:	7c023184 	ins	v0,zero,0x6,0x1
9d008670:	ac622000 	sw	v0,8192(v1)

    // enable multi vector interrupts
    INTCONbits.MVEC = 0x1;
9d008674:	3c03bf88 	lui	v1,0xbf88
9d008678:	8c621000 	lw	v0,4096(v1)
9d00867c:	24040001 	li	a0,1
9d008680:	7c826304 	ins	v0,a0,0xc,0x1
9d008684:	ac621000 	sw	v0,4096(v1)

    // disable JTAG to get pins back
    DDPCONbits.JTAGEN = 0;
9d008688:	3c03bf81 	lui	v1,0xbf81
9d00868c:	9462f200 	lhu	v0,-3584(v1)
9d008690:	7c0218c4 	ins	v0,zero,0x3,0x1
9d008694:	a462f200 	sh	v0,-3584(v1)

    // do your TRIS and LAT commands here
    TRISBCLR = 0b110000; // B4 and B5 LEDs
9d008698:	3c02bf88 	lui	v0,0xbf88
9d00869c:	24030030 	li	v1,48
9d0086a0:	ac436114 	sw	v1,24852(v0)
    TRISASET = 0b010000; // A4 user button
9d0086a4:	3c02bf88 	lui	v0,0xbf88
9d0086a8:	24030010 	li	v1,16
9d0086ac:	ac436018 	sw	v1,24600(v0)
    //NU32_LED1 = 1; // LED1 is off
    NU32DIP_YELLOW = 1;
9d0086b0:	3c03bf88 	lui	v1,0xbf88
9d0086b4:	94626130 	lhu	v0,24880(v1)
9d0086b8:	24040001 	li	a0,1
9d0086bc:	7c822944 	ins	v0,a0,0x5,0x1
9d0086c0:	a4626130 	sh	v0,24880(v1)
    //NU32_LED2 = 0; // LED2 is on
    NU32DIP_GREEN = 0;
9d0086c4:	3c03bf88 	lui	v1,0xbf88
9d0086c8:	94626130 	lhu	v0,24880(v1)
9d0086cc:	7c022104 	ins	v0,zero,0x4,0x1
9d0086d0:	a4626130 	sh	v0,24880(v1)

    //UART1 pins
    U1RXRbits.U1RXR = 0b0000; // Set A2 to U1RX
9d0086d4:	3c03bf81 	lui	v1,0xbf81
9d0086d8:	9062fa50 	lbu	v0,-1456(v1)
9d0086dc:	7c021804 	ins	v0,zero,0x0,0x4
9d0086e0:	a062fa50 	sb	v0,-1456(v1)
    RPB3Rbits.RPB3R = 0b0001; // Set B3 to U1TX
9d0086e4:	3c03bf81 	lui	v1,0xbf81
9d0086e8:	9062fb38 	lbu	v0,-1224(v1)
9d0086ec:	24040001 	li	a0,1
9d0086f0:	7c821804 	ins	v0,a0,0x0,0x4
9d0086f4:	a062fb38 	sb	v0,-1224(v1)

    // turn on UART1 without an interrupt
    U1MODEbits.BRGH = 0; // set baud to NU32_DESIRED_BAUD
9d0086f8:	3c03bf80 	lui	v1,0xbf80
9d0086fc:	94626000 	lhu	v0,24576(v1)
9d008700:	7c0218c4 	ins	v0,zero,0x3,0x1
9d008704:	a4626000 	sh	v0,24576(v1)
    U1BRG = ((NU32DIP_SYS_FREQ / NU32DIP_DESIRED_BAUD) / 16) - 1;
9d008708:	3c02bf80 	lui	v0,0xbf80
9d00870c:	2403000c 	li	v1,12
9d008710:	ac436040 	sw	v1,24640(v0)

    // 8 bit, no parity bit, and 1 stop bit (8N1 setup)
    U1MODEbits.PDSEL = 0;
9d008714:	3c03bf80 	lui	v1,0xbf80
9d008718:	94626000 	lhu	v0,24576(v1)
9d00871c:	7c021044 	ins	v0,zero,0x1,0x2
9d008720:	a4626000 	sh	v0,24576(v1)
    U1MODEbits.STSEL = 0;
9d008724:	3c03bf80 	lui	v1,0xbf80
9d008728:	94626000 	lhu	v0,24576(v1)
9d00872c:	7c020004 	ins	v0,zero,0x0,0x1
9d008730:	a4626000 	sh	v0,24576(v1)

    // configure TX & RX pins as output & input pins
    U1STAbits.UTXEN = 1;
9d008734:	3c03bf80 	lui	v1,0xbf80
9d008738:	8c626010 	lw	v0,24592(v1)
9d00873c:	24040001 	li	a0,1
9d008740:	7c825284 	ins	v0,a0,0xa,0x1
9d008744:	ac626010 	sw	v0,24592(v1)
    U1STAbits.URXEN = 1;
9d008748:	3c03bf80 	lui	v1,0xbf80
9d00874c:	8c626010 	lw	v0,24592(v1)
9d008750:	24040001 	li	a0,1
9d008754:	7c826304 	ins	v0,a0,0xc,0x1
9d008758:	ac626010 	sw	v0,24592(v1)
    // configure without hardware flow control
    U1MODEbits.UEN = 0;
9d00875c:	3c03bf80 	lui	v1,0xbf80
9d008760:	94626000 	lhu	v0,24576(v1)
9d008764:	7c024a04 	ins	v0,zero,0x8,0x2
9d008768:	a4626000 	sh	v0,24576(v1)

    // enable the uart
    U1MODEbits.ON = 1;
9d00876c:	3c03bf80 	lui	v1,0xbf80
9d008770:	94626000 	lhu	v0,24576(v1)
9d008774:	24040001 	li	a0,1
9d008778:	7c827bc4 	ins	v0,a0,0xf,0x1
9d00877c:	a4626000 	sh	v0,24576(v1)

    __builtin_enable_interrupts();
9d008780:	41626020 	ei	v0
}
9d008784:	00000000 	nop
9d008788:	03c0e825 	move	sp,s8
9d00878c:	8fbf0004 	lw	ra,4(sp)
9d008790:	8fbe0000 	lw	s8,0(sp)
9d008794:	27bd0008 	addiu	sp,sp,8
9d008798:	03e00008 	jr	ra
9d00879c:	00000000 	nop

9d0087a0 <NU32DIP_ReadUART1>:

// Read from UART1
// block other functions until you get a '\r' or '\n'
// send the pointer to your char array and the number of elements in the array

void NU32DIP_ReadUART1(char * message, int maxLength) {
9d0087a0:	27bdffe8 	addiu	sp,sp,-24
9d0087a4:	afbe0014 	sw	s8,20(sp)
9d0087a8:	03a0f025 	move	s8,sp
9d0087ac:	afc40018 	sw	a0,24(s8)
9d0087b0:	afc5001c 	sw	a1,28(s8)
    char data = 0;
9d0087b4:	a3c00008 	sb	zero,8(s8)
    int complete = 0, num_bytes = 0;
9d0087b8:	afc00000 	sw	zero,0(s8)
9d0087bc:	afc00004 	sw	zero,4(s8)
    // loop until you get a '\r' or '\n'
    while (!complete) {
9d0087c0:	10000024 	b	9d008854 <NU32DIP_ReadUART1+0xb4>
9d0087c4:	00000000 	nop
        if (U1STAbits.URXDA) { // if data is available
9d0087c8:	3c02bf80 	lui	v0,0xbf80
9d0087cc:	8c426010 	lw	v0,24592(v0)
9d0087d0:	7c420000 	ext	v0,v0,0x0,0x1
9d0087d4:	304200ff 	andi	v0,v0,0xff
9d0087d8:	1040001e 	beqz	v0,9d008854 <NU32DIP_ReadUART1+0xb4>
9d0087dc:	00000000 	nop
            data = U1RXREG; // read the data
9d0087e0:	3c02bf80 	lui	v0,0xbf80
9d0087e4:	8c426030 	lw	v0,24624(v0)
9d0087e8:	a3c20008 	sb	v0,8(s8)
            if ((data == '\n') || (data == '\r')) {
9d0087ec:	83c30008 	lb	v1,8(s8)
9d0087f0:	2402000a 	li	v0,10
9d0087f4:	10620005 	beq	v1,v0,9d00880c <NU32DIP_ReadUART1+0x6c>
9d0087f8:	00000000 	nop
9d0087fc:	83c30008 	lb	v1,8(s8)
9d008800:	2402000d 	li	v0,13
9d008804:	14620005 	bne	v1,v0,9d00881c <NU32DIP_ReadUART1+0x7c>
9d008808:	00000000 	nop
                complete = 1;
9d00880c:	24020001 	li	v0,1
9d008810:	afc20000 	sw	v0,0(s8)
9d008814:	1000000f 	b	9d008854 <NU32DIP_ReadUART1+0xb4>
9d008818:	00000000 	nop
            } else {
                message[num_bytes] = data;
9d00881c:	8fc20004 	lw	v0,4(s8)
9d008820:	8fc30018 	lw	v1,24(s8)
9d008824:	00621021 	addu	v0,v1,v0
9d008828:	93c30008 	lbu	v1,8(s8)
9d00882c:	a0430000 	sb	v1,0(v0)
                ++num_bytes;
9d008830:	8fc20004 	lw	v0,4(s8)
9d008834:	24420001 	addiu	v0,v0,1
9d008838:	afc20004 	sw	v0,4(s8)
                // roll over if the array is too small
                if (num_bytes >= maxLength) {
9d00883c:	8fc30004 	lw	v1,4(s8)
9d008840:	8fc2001c 	lw	v0,28(s8)
9d008844:	0062102a 	slt	v0,v1,v0
9d008848:	14400002 	bnez	v0,9d008854 <NU32DIP_ReadUART1+0xb4>
9d00884c:	00000000 	nop
                    num_bytes = 0;
9d008850:	afc00004 	sw	zero,4(s8)
    while (!complete) {
9d008854:	8fc20000 	lw	v0,0(s8)
9d008858:	1040ffdb 	beqz	v0,9d0087c8 <NU32DIP_ReadUART1+0x28>
9d00885c:	00000000 	nop
                }
            }
        }
    }
    // end the string
    message[num_bytes] = '\0';
9d008860:	8fc20004 	lw	v0,4(s8)
9d008864:	8fc30018 	lw	v1,24(s8)
9d008868:	00621021 	addu	v0,v1,v0
9d00886c:	a0400000 	sb	zero,0(v0)
}
9d008870:	00000000 	nop
9d008874:	03c0e825 	move	sp,s8
9d008878:	8fbe0014 	lw	s8,20(sp)
9d00887c:	27bd0018 	addiu	sp,sp,24
9d008880:	03e00008 	jr	ra
9d008884:	00000000 	nop

9d008888 <NU32DIP_WriteUART1>:

// Write a character array using UART1

void NU32DIP_WriteUART1(const char * string) {
9d008888:	27bdfff8 	addiu	sp,sp,-8
9d00888c:	afbe0004 	sw	s8,4(sp)
9d008890:	03a0f025 	move	s8,sp
9d008894:	afc40008 	sw	a0,8(s8)
    while (*string != '\0') {
9d008898:	10000010 	b	9d0088dc <NU32DIP_WriteUART1+0x54>
9d00889c:	00000000 	nop
        while (U1STAbits.UTXBF) {
9d0088a0:	00000000 	nop
9d0088a4:	3c02bf80 	lui	v0,0xbf80
9d0088a8:	8c426010 	lw	v0,24592(v0)
9d0088ac:	7c420240 	ext	v0,v0,0x9,0x1
9d0088b0:	304200ff 	andi	v0,v0,0xff
9d0088b4:	1440fffb 	bnez	v0,9d0088a4 <NU32DIP_WriteUART1+0x1c>
9d0088b8:	00000000 	nop
            ; // wait until tx buffer isn't full
        }
        U1TXREG = *string;
9d0088bc:	8fc20008 	lw	v0,8(s8)
9d0088c0:	80420000 	lb	v0,0(v0)
9d0088c4:	00401825 	move	v1,v0
9d0088c8:	3c02bf80 	lui	v0,0xbf80
9d0088cc:	ac436020 	sw	v1,24608(v0)
        ++string;
9d0088d0:	8fc20008 	lw	v0,8(s8)
9d0088d4:	24420001 	addiu	v0,v0,1
9d0088d8:	afc20008 	sw	v0,8(s8)
    while (*string != '\0') {
9d0088dc:	8fc20008 	lw	v0,8(s8)
9d0088e0:	80420000 	lb	v0,0(v0)
9d0088e4:	1440ffee 	bnez	v0,9d0088a0 <NU32DIP_WriteUART1+0x18>
9d0088e8:	00000000 	nop
    }
}
9d0088ec:	00000000 	nop
9d0088f0:	03c0e825 	move	sp,s8
9d0088f4:	8fbe0004 	lw	s8,4(sp)
9d0088f8:	27bd0008 	addiu	sp,sp,8
9d0088fc:	03e00008 	jr	ra
9d008900:	00000000 	nop

Disassembly of section .text.__pop_int:

9d008904 <__pop_int>:
9d008904:	24020088 	li	v0,136
9d008908:	10a2003f 	beq	a1,v0,9d008a08 <__pop_int+0x104>
9d00890c:	28a20089 	slti	v0,a1,137
9d008910:	1040001a 	beqz	v0,9d00897c <__pop_int+0x78>
9d008914:	24020081 	li	v0,129
9d008918:	10a20054 	beq	a1,v0,9d008a6c <__pop_int+0x168>
9d00891c:	28a20082 	slti	v0,a1,130
9d008920:	10400005 	beqz	v0,9d008938 <__pop_int+0x34>
9d008924:	24020080 	li	v0,128
9d008928:	50a20051 	beql	a1,v0,9d008a70 <__pop_int+0x16c>
9d00892c:	8ce20000 	lw	v0,0(a3)
9d008930:	03e00008 	jr	ra
9d008934:	00001025 	move	v0,zero
9d008938:	24020082 	li	v0,130
9d00893c:	50a2003b 	beql	a1,v0,9d008a2c <__pop_int+0x128>
9d008940:	8ce20000 	lw	v0,0(a3)
9d008944:	24020084 	li	v0,132
9d008948:	14a2fff9 	bne	a1,v0,9d008930 <__pop_int+0x2c>
9d00894c:	00000000 	nop
9d008950:	8ce20000 	lw	v0,0(a3)
9d008954:	24430004 	addiu	v1,v0,4
9d008958:	8c420000 	lw	v0,0(v0)
9d00895c:	10c00027 	beqz	a2,9d0089fc <__pop_int+0xf8>
9d008960:	ace30000 	sw	v1,0(a3)
9d008964:	7c021620 	seh	v0,v0
9d008968:	ac820000 	sw	v0,0(a0)
9d00896c:	000217c3 	sra	v0,v0,0x1f
9d008970:	ac820004 	sw	v0,4(a0)
9d008974:	03e00008 	jr	ra
9d008978:	24020001 	li	v0,1
9d00897c:	240200a0 	li	v0,160
9d008980:	50a20036 	beql	a1,v0,9d008a5c <__pop_int+0x158>
9d008984:	8ce20000 	lw	v0,0(a3)
9d008988:	28a200a1 	slti	v0,a1,161
9d00898c:	10400010 	beqz	v0,9d0089d0 <__pop_int+0xcc>
9d008990:	24020090 	li	v0,144
9d008994:	14a2ffe6 	bne	a1,v0,9d008930 <__pop_int+0x2c>
9d008998:	00000000 	nop
9d00899c:	8ce20000 	lw	v0,0(a3)
9d0089a0:	24420007 	addiu	v0,v0,7
9d0089a4:	7c021004 	ins	v0,zero,0x0,0x3
9d0089a8:	8c480000 	lw	t0,0(v0)
9d0089ac:	8c490004 	lw	t1,4(v0)
9d0089b0:	24420008 	addiu	v0,v0,8
9d0089b4:	ace20000 	sw	v0,0(a3)
9d0089b8:	ac880000 	sw	t0,0(a0)
9d0089bc:	ac890004 	sw	t1,4(a0)
9d0089c0:	10c00001 	beqz	a2,9d0089c8 <__pop_int+0xc4>
9d0089c4:	24020001 	li	v0,1
9d0089c8:	03e00008 	jr	ra
9d0089cc:	00000000 	nop
9d0089d0:	240200c0 	li	v0,192
9d0089d4:	50a20005 	beql	a1,v0,9d0089ec <__pop_int+0xe8>
9d0089d8:	8ce20000 	lw	v0,0(a3)
9d0089dc:	240200f0 	li	v0,240
9d0089e0:	14a2ffd3 	bne	a1,v0,9d008930 <__pop_int+0x2c>
9d0089e4:	00000000 	nop
9d0089e8:	8ce20000 	lw	v0,0(a3)
9d0089ec:	24430004 	addiu	v1,v0,4
9d0089f0:	ace30000 	sw	v1,0(a3)
9d0089f4:	10000002 	b	9d008a00 <__pop_int+0xfc>
9d0089f8:	8c420000 	lw	v0,0(v0)
9d0089fc:	3042ffff 	andi	v0,v0,0xffff
9d008a00:	10000020 	b	9d008a84 <__pop_int+0x180>
9d008a04:	ac820000 	sw	v0,0(a0)
9d008a08:	8ce20000 	lw	v0,0(a3)
9d008a0c:	24430004 	addiu	v1,v0,4
9d008a10:	8c420000 	lw	v0,0(v0)
9d008a14:	10c00003 	beqz	a2,9d008a24 <__pop_int+0x120>
9d008a18:	ace30000 	sw	v1,0(a3)
9d008a1c:	1000ffd2 	b	9d008968 <__pop_int+0x64>
9d008a20:	7c021420 	seb	v0,v0
9d008a24:	1000fff6 	b	9d008a00 <__pop_int+0xfc>
9d008a28:	304200ff 	andi	v0,v0,0xff
9d008a2c:	24420007 	addiu	v0,v0,7
9d008a30:	7c021004 	ins	v0,zero,0x0,0x3
9d008a34:	8c480000 	lw	t0,0(v0)
9d008a38:	8c490004 	lw	t1,4(v0)
9d008a3c:	24420008 	addiu	v0,v0,8
9d008a40:	ace20000 	sw	v0,0(a3)
9d008a44:	ac880000 	sw	t0,0(a0)
9d008a48:	ac890004 	sw	t1,4(a0)
9d008a4c:	10c0ffde 	beqz	a2,9d0089c8 <__pop_int+0xc4>
9d008a50:	24020001 	li	v0,1
9d008a54:	03e00008 	jr	ra
9d008a58:	00000000 	nop
9d008a5c:	24430004 	addiu	v1,v0,4
9d008a60:	ace30000 	sw	v1,0(a3)
9d008a64:	1000ffc0 	b	9d008968 <__pop_int+0x64>
9d008a68:	8c420000 	lw	v0,0(v0)
9d008a6c:	8ce20000 	lw	v0,0(a3)
9d008a70:	24430004 	addiu	v1,v0,4
9d008a74:	ace30000 	sw	v1,0(a3)
9d008a78:	8c420000 	lw	v0,0(v0)
9d008a7c:	14c0ffbb 	bnez	a2,9d00896c <__pop_int+0x68>
9d008a80:	ac820000 	sw	v0,0(a0)
9d008a84:	1000ffbb 	b	9d008974 <__pop_int+0x70>
9d008a88:	ac800004 	sw	zero,4(a0)

Disassembly of section .text.__fmt_d:

9d008a8c <__fmt_d>:
9d008a8c:	27bdffc0 	addiu	sp,sp,-64
9d008a90:	afb1002c 	sw	s1,44(sp)
9d008a94:	00808825 	move	s1,a0
9d008a98:	00c02025 	move	a0,a2
9d008a9c:	8c870004 	lw	a3,4(a0)
9d008aa0:	8ca20000 	lw	v0,0(a1)
9d008aa4:	afb40038 	sw	s4,56(sp)
9d008aa8:	0007a7c2 	srl	s4,a3,0x1f
9d008aac:	afb30034 	sw	s3,52(sp)
9d008ab0:	afb20030 	sw	s2,48(sp)
9d008ab4:	afb00028 	sw	s0,40(sp)
9d008ab8:	afbf003c 	sw	ra,60(sp)
9d008abc:	00a08025 	move	s0,a1
9d008ac0:	8ca30004 	lw	v1,4(a1)
9d008ac4:	8cb20008 	lw	s2,8(a1)
9d008ac8:	afa20020 	sw	v0,32(sp)
9d008acc:	8cb3000c 	lw	s3,12(a1)
9d008ad0:	1280003e 	beqz	s4,9d008bcc <__fmt_d+0x140>
9d008ad4:	8cc60000 	lw	a2,0(a2)
9d008ad8:	00063023 	negu	a2,a2
9d008adc:	0006202b 	sltu	a0,zero,a2
9d008ae0:	00073823 	negu	a3,a3
9d008ae4:	04600008 	bltz	v1,9d008b08 <__fmt_d+0x7c>
9d008ae8:	00e43823 	subu	a3,a3,a0
9d008aec:	7c020844 	ins	v0,zero,0x1,0x1
9d008af0:	16800005 	bnez	s4,9d008b08 <__fmt_d+0x7c>
9d008af4:	afa20020 	sw	v0,32(sp)
9d008af8:	8fa20020 	lw	v0,32(sp)
9d008afc:	30430004 	andi	v1,v0,0x4
9d008b00:	1060002a 	beqz	v1,9d008bac <__fmt_d+0x120>
9d008b04:	7c4200c0 	ext	v0,v0,0x3,0x1
9d008b08:	2642ffff 	addiu	v0,s2,-1
9d008b0c:	27a30020 	addiu	v1,sp,32
9d008b10:	afa30018 	sw	v1,24(sp)
9d008b14:	2403000a 	li	v1,10
9d008b18:	afa30014 	sw	v1,20(sp)
9d008b1c:	afa20010 	sw	v0,16(sp)
9d008b20:	0f4022f7 	jal	9d008bdc <__cvt_u>
9d008b24:	02002025 	move	a0,s0
9d008b28:	16800006 	bnez	s4,9d008b44 <__fmt_d+0xb8>
9d008b2c:	2403002d 	li	v1,45
9d008b30:	8fa30020 	lw	v1,32(sp)
9d008b34:	30640004 	andi	a0,v1,0x4
9d008b38:	1080001e 	beqz	a0,9d008bb4 <__fmt_d+0x128>
9d008b3c:	30630008 	andi	v1,v1,0x8
9d008b40:	2403002b 	li	v1,43
9d008b44:	2442ffff 	addiu	v0,v0,-1
9d008b48:	02622021 	addu	a0,s3,v0
9d008b4c:	a0830000 	sb	v1,0(a0)
9d008b50:	8e060010 	lw	a2,16(s0)
9d008b54:	8fa30020 	lw	v1,32(sp)
9d008b58:	02403825 	move	a3,s2
9d008b5c:	24c6ffff 	addiu	a2,a2,-1
9d008b60:	afa30010 	sw	v1,16(sp)
9d008b64:	00c23023 	subu	a2,a2,v0
9d008b68:	02622821 	addu	a1,s3,v0
9d008b6c:	0f402346 	jal	9d008d18 <__pad>
9d008b70:	02202025 	move	a0,s1
9d008b74:	8e230004 	lw	v1,4(s1)
9d008b78:	30630100 	andi	v1,v1,0x100
9d008b7c:	10600004 	beqz	v1,9d008b90 <__fmt_d+0x104>
9d008b80:	8fbf003c 	lw	ra,60(sp)
9d008b84:	8e030004 	lw	v1,4(s0)
9d008b88:	0043202a 	slt	a0,v0,v1
9d008b8c:	0064100b 	movn	v0,v1,a0
9d008b90:	8fb40038 	lw	s4,56(sp)
9d008b94:	8fb30034 	lw	s3,52(sp)
9d008b98:	8fb20030 	lw	s2,48(sp)
9d008b9c:	8fb1002c 	lw	s1,44(sp)
9d008ba0:	8fb00028 	lw	s0,40(sp)
9d008ba4:	03e00008 	jr	ra
9d008ba8:	27bd0040 	addiu	sp,sp,64
9d008bac:	1000ffd7 	b	9d008b0c <__fmt_d+0x80>
9d008bb0:	02421023 	subu	v0,s2,v0
9d008bb4:	1060ffe6 	beqz	v1,9d008b50 <__fmt_d+0xc4>
9d008bb8:	24040020 	li	a0,32
9d008bbc:	2442ffff 	addiu	v0,v0,-1
9d008bc0:	02621821 	addu	v1,s3,v0
9d008bc4:	1000ffe2 	b	9d008b50 <__fmt_d+0xc4>
9d008bc8:	a0640000 	sb	a0,0(v1)
9d008bcc:	0463ffc8 	bgezl	v1,9d008af0 <__fmt_d+0x64>
9d008bd0:	7c020844 	ins	v0,zero,0x1,0x1
9d008bd4:	1000ffc9 	b	9d008afc <__fmt_d+0x70>
9d008bd8:	8fa20020 	lw	v0,32(sp)

Disassembly of section .text.__cvt_u:

9d008bdc <__cvt_u>:
9d008bdc:	8c820004 	lw	v0,4(a0)
9d008be0:	27bdffc0 	addiu	sp,sp,-64
9d008be4:	afbe0038 	sw	s8,56(sp)
9d008be8:	afb40028 	sw	s4,40(sp)
9d008bec:	afb20020 	sw	s2,32(sp)
9d008bf0:	afb1001c 	sw	s1,28(sp)
9d008bf4:	afbf003c 	sw	ra,60(sp)
9d008bf8:	afb70034 	sw	s7,52(sp)
9d008bfc:	afb60030 	sw	s6,48(sp)
9d008c00:	afb5002c 	sw	s5,44(sp)
9d008c04:	afb30024 	sw	s3,36(sp)
9d008c08:	afb00018 	sw	s0,24(sp)
9d008c0c:	00c08825 	move	s1,a2
9d008c10:	00e09025 	move	s2,a3
9d008c14:	8fb40054 	lw	s4,84(sp)
9d008c18:	04410002 	bgez	v0,9d008c24 <__cvt_u+0x48>
9d008c1c:	8fbe0058 	lw	s8,88(sp)
9d008c20:	24020001 	li	v0,1
9d008c24:	8c900010 	lw	s0,16(a0)
9d008c28:	8c95000c 	lw	s5,12(a0)
9d008c2c:	8fd70000 	lw	s7,0(s8)
9d008c30:	8fb30050 	lw	s3,80(sp)
9d008c34:	2610ffff 	addiu	s0,s0,-1
9d008c38:	02b01821 	addu	v1,s5,s0
9d008c3c:	a0600000 	sb	zero,0(v1)
9d008c40:	24090001 	li	t1,1
9d008c44:	00534023 	subu	t0,v0,s3
9d008c48:	32f70002 	andi	s7,s7,0x2
9d008c4c:	0014b7c3 	sra	s6,s4,0x1f
9d008c50:	1e000010 	bgtz	s0,9d008c94 <__cvt_u+0xb8>
9d008c54:	02321025 	or	v0,s1,s2
9d008c58:	5120002c 	beqzl	t1,9d008d0c <__cvt_u+0x130>
9d008c5c:	8fc20000 	lw	v0,0(s8)
9d008c60:	8fbf003c 	lw	ra,60(sp)
9d008c64:	02001025 	move	v0,s0
9d008c68:	8fbe0038 	lw	s8,56(sp)
9d008c6c:	8fb70034 	lw	s7,52(sp)
9d008c70:	8fb60030 	lw	s6,48(sp)
9d008c74:	8fb5002c 	lw	s5,44(sp)
9d008c78:	8fb40028 	lw	s4,40(sp)
9d008c7c:	8fb30024 	lw	s3,36(sp)
9d008c80:	8fb20020 	lw	s2,32(sp)
9d008c84:	8fb1001c 	lw	s1,28(sp)
9d008c88:	8fb00018 	lw	s0,24(sp)
9d008c8c:	03e00008 	jr	ra
9d008c90:	27bd0040 	addiu	sp,sp,64
9d008c94:	14400007 	bnez	v0,9d008cb4 <__cvt_u+0xd8>
9d008c98:	01131021 	addu	v0,t0,s3
9d008c9c:	1c400006 	bgtz	v0,9d008cb8 <__cvt_u+0xdc>
9d008ca0:	02202025 	move	a0,s1
9d008ca4:	1a60ffec 	blez	s3,9d008c58 <__cvt_u+0x7c>
9d008ca8:	00000000 	nop
9d008cac:	12e0ffea 	beqz	s7,9d008c58 <__cvt_u+0x7c>
9d008cb0:	00000000 	nop
9d008cb4:	02202025 	move	a0,s1
9d008cb8:	02402825 	move	a1,s2
9d008cbc:	02803025 	move	a2,s4
9d008cc0:	02c03825 	move	a3,s6
9d008cc4:	afa80014 	sw	t0,20(sp)
9d008cc8:	0f4020a0 	jal	9d008280 <__umoddi3>
9d008ccc:	2610ffff 	addiu	s0,s0,-1
9d008cd0:	afa20010 	sw	v0,16(sp)
9d008cd4:	02b01821 	addu	v1,s5,s0
9d008cd8:	24420030 	addiu	v0,v0,48
9d008cdc:	02202025 	move	a0,s1
9d008ce0:	02402825 	move	a1,s2
9d008ce4:	a0620000 	sb	v0,0(v1)
9d008ce8:	02803025 	move	a2,s4
9d008cec:	0f401fb1 	jal	9d007ec4 <__udivdi3>
9d008cf0:	02c03825 	move	a3,s6
9d008cf4:	2673ffff 	addiu	s3,s3,-1
9d008cf8:	00408825 	move	s1,v0
9d008cfc:	00609025 	move	s2,v1
9d008d00:	8fa80014 	lw	t0,20(sp)
9d008d04:	1000ffd2 	b	9d008c50 <__cvt_u+0x74>
9d008d08:	8fa90010 	lw	t1,16(sp)
9d008d0c:	7c022104 	ins	v0,zero,0x4,0x1
9d008d10:	1000ffd3 	b	9d008c60 <__cvt_u+0x84>
9d008d14:	afc20000 	sw	v0,0(s8)

Disassembly of section .text.__pad:

9d008d18 <__pad>:
9d008d18:	27bdffc0 	addiu	sp,sp,-64
9d008d1c:	afb3002c 	sw	s3,44(sp)
9d008d20:	8fb30050 	lw	s3,80(sp)
9d008d24:	afb60038 	sw	s6,56(sp)
9d008d28:	afb40030 	sw	s4,48(sp)
9d008d2c:	32730001 	andi	s3,s3,0x1
9d008d30:	afb20028 	sw	s2,40(sp)
9d008d34:	afb10024 	sw	s1,36(sp)
9d008d38:	afb00020 	sw	s0,32(sp)
9d008d3c:	afbf003c 	sw	ra,60(sp)
9d008d40:	afb50034 	sw	s5,52(sp)
9d008d44:	00809025 	move	s2,a0
9d008d48:	00a0b025 	move	s6,a1
9d008d4c:	00c08025 	move	s0,a2
9d008d50:	00e08825 	move	s1,a3
9d008d54:	16600003 	bnez	s3,9d008d64 <__pad+0x4c>
9d008d58:	00c7a02b 	sltu	s4,a2,a3
9d008d5c:	56800013 	bnezl	s4,9d008dac <__pad+0x94>
9d008d60:	0230a023 	subu	s4,s1,s0
9d008d64:	02003025 	move	a2,s0
9d008d68:	02c02825 	move	a1,s6
9d008d6c:	0f40246c 	jal	9d0091b0 <__out>
9d008d70:	02402025 	move	a0,s2
9d008d74:	1680000d 	bnez	s4,9d008dac <__pad+0x94>
9d008d78:	0230a023 	subu	s4,s1,s0
9d008d7c:	02008825 	move	s1,s0
9d008d80:	8fbf003c 	lw	ra,60(sp)
9d008d84:	02201025 	move	v0,s1
9d008d88:	8fb60038 	lw	s6,56(sp)
9d008d8c:	8fb50034 	lw	s5,52(sp)
9d008d90:	8fb40030 	lw	s4,48(sp)
9d008d94:	8fb3002c 	lw	s3,44(sp)
9d008d98:	8fb20028 	lw	s2,40(sp)
9d008d9c:	8fb10024 	lw	s1,36(sp)
9d008da0:	8fb00020 	lw	s0,32(sp)
9d008da4:	03e00008 	jr	ra
9d008da8:	27bd0040 	addiu	sp,sp,64
9d008dac:	2e860011 	sltiu	a2,s4,17
9d008db0:	24020010 	li	v0,16
9d008db4:	0286100b 	movn	v0,s4,a2
9d008db8:	00403025 	move	a2,v0
9d008dbc:	24050020 	li	a1,32
9d008dc0:	27a40010 	addiu	a0,sp,16
9d008dc4:	0f40253b 	jal	9d0094ec <memset>
9d008dc8:	0280a825 	move	s5,s4
9d008dcc:	2ea20010 	sltiu	v0,s5,16
9d008dd0:	1040000b 	beqz	v0,9d008e00 <__pad+0xe8>
9d008dd4:	3286000f 	andi	a2,s4,0xf
9d008dd8:	27a50010 	addiu	a1,sp,16
9d008ddc:	0f40246c 	jal	9d0091b0 <__out>
9d008de0:	02402025 	move	a0,s2
9d008de4:	1660ffe6 	bnez	s3,9d008d80 <__pad+0x68>
9d008de8:	02003025 	move	a2,s0
9d008dec:	02c02825 	move	a1,s6
9d008df0:	0f40246c 	jal	9d0091b0 <__out>
9d008df4:	02402025 	move	a0,s2
9d008df8:	1000ffe2 	b	9d008d84 <__pad+0x6c>
9d008dfc:	8fbf003c 	lw	ra,60(sp)
9d008e00:	24060010 	li	a2,16
9d008e04:	27a50010 	addiu	a1,sp,16
9d008e08:	0f40246c 	jal	9d0091b0 <__out>
9d008e0c:	02402025 	move	a0,s2
9d008e10:	1000ffee 	b	9d008dcc <__pad+0xb4>
9d008e14:	26b5fff0 	addiu	s5,s5,-16

Disassembly of section .text.__pop_ptr:

9d008e18 <__pop_ptr>:
9d008e18:	24020084 	li	v0,132
9d008e1c:	50a20022 	beql	a1,v0,9d008ea8 <__pop_ptr+0x90>
9d008e20:	8ce20000 	lw	v0,0(a3)
9d008e24:	28a20085 	slti	v0,a1,133
9d008e28:	10400010 	beqz	v0,9d008e6c <__pop_ptr+0x54>
9d008e2c:	24020081 	li	v0,129
9d008e30:	50a20008 	beql	a1,v0,9d008e54 <__pop_ptr+0x3c>
9d008e34:	8ce20000 	lw	v0,0(a3)
9d008e38:	24020082 	li	v0,130
9d008e3c:	50a20027 	beql	a1,v0,9d008edc <__pop_ptr+0xc4>
9d008e40:	8ce20000 	lw	v0,0(a3)
9d008e44:	24020080 	li	v0,128
9d008e48:	14a20010 	bne	a1,v0,9d008e8c <__pop_ptr+0x74>
9d008e4c:	00000000 	nop
9d008e50:	8ce20000 	lw	v0,0(a3)
9d008e54:	24430004 	addiu	v1,v0,4
9d008e58:	ace30000 	sw	v1,0(a3)
9d008e5c:	8c420000 	lw	v0,0(v0)
9d008e60:	ac820000 	sw	v0,0(a0)
9d008e64:	10000015 	b	9d008ebc <__pop_ptr+0xa4>
9d008e68:	ac460000 	sw	a2,0(v0)
9d008e6c:	24020090 	li	v0,144
9d008e70:	50a2001a 	beql	a1,v0,9d008edc <__pop_ptr+0xc4>
9d008e74:	8ce20000 	lw	v0,0(a3)
9d008e78:	28a20091 	slti	v0,a1,145
9d008e7c:	10400005 	beqz	v0,9d008e94 <__pop_ptr+0x7c>
9d008e80:	24020088 	li	v0,136
9d008e84:	50a2000f 	beql	a1,v0,9d008ec4 <__pop_ptr+0xac>
9d008e88:	8ce20000 	lw	v0,0(a3)
9d008e8c:	03e00008 	jr	ra
9d008e90:	00001025 	move	v0,zero
9d008e94:	240200a0 	li	v0,160
9d008e98:	50a2ffee 	beql	a1,v0,9d008e54 <__pop_ptr+0x3c>
9d008e9c:	8ce20000 	lw	v0,0(a3)
9d008ea0:	1000ffe9 	b	9d008e48 <__pop_ptr+0x30>
9d008ea4:	240200c0 	li	v0,192
9d008ea8:	24430004 	addiu	v1,v0,4
9d008eac:	ace30000 	sw	v1,0(a3)
9d008eb0:	8c420000 	lw	v0,0(v0)
9d008eb4:	ac820000 	sw	v0,0(a0)
9d008eb8:	a4460000 	sh	a2,0(v0)
9d008ebc:	03e00008 	jr	ra
9d008ec0:	24020001 	li	v0,1
9d008ec4:	24430004 	addiu	v1,v0,4
9d008ec8:	ace30000 	sw	v1,0(a3)
9d008ecc:	8c420000 	lw	v0,0(v0)
9d008ed0:	ac820000 	sw	v0,0(a0)
9d008ed4:	1000fff9 	b	9d008ebc <__pop_ptr+0xa4>
9d008ed8:	a0460000 	sb	a2,0(v0)
9d008edc:	24430004 	addiu	v1,v0,4
9d008ee0:	ace30000 	sw	v1,0(a3)
9d008ee4:	8c420000 	lw	v0,0(v0)
9d008ee8:	ac820000 	sw	v0,0(a0)
9d008eec:	ac460000 	sw	a2,0(v0)
9d008ef0:	000637c3 	sra	a2,a2,0x1f
9d008ef4:	1000fff1 	b	9d008ebc <__pop_ptr+0xa4>
9d008ef8:	ac460004 	sw	a2,4(v0)

Disassembly of section .text.general_exception:

9d008efc <_general_exception_context>:
9d008efc:	27bdffa8 	addiu	sp,sp,-88
9d008f00:	afa10004 	sw	at,4(sp)
9d008f04:	afa20008 	sw	v0,8(sp)
9d008f08:	afa3000c 	sw	v1,12(sp)
9d008f0c:	afa40010 	sw	a0,16(sp)
9d008f10:	afa50014 	sw	a1,20(sp)
9d008f14:	afa60018 	sw	a2,24(sp)
9d008f18:	afa7001c 	sw	a3,28(sp)
9d008f1c:	afa80020 	sw	t0,32(sp)
9d008f20:	afa90024 	sw	t1,36(sp)
9d008f24:	afaa0028 	sw	t2,40(sp)
9d008f28:	afab002c 	sw	t3,44(sp)
9d008f2c:	afac0030 	sw	t4,48(sp)
9d008f30:	afad0034 	sw	t5,52(sp)
9d008f34:	afae0038 	sw	t6,56(sp)
9d008f38:	afaf003c 	sw	t7,60(sp)
9d008f3c:	afb80040 	sw	t8,64(sp)
9d008f40:	afb90044 	sw	t9,68(sp)
9d008f44:	afbf0048 	sw	ra,72(sp)
9d008f48:	00004012 	mflo	t0
9d008f4c:	afa8004c 	sw	t0,76(sp)
9d008f50:	00004010 	mfhi	t0
9d008f54:	afa80050 	sw	t0,80(sp)
9d008f58:	3c1a9d01 	lui	k0,0x9d01
9d008f5c:	275a9354 	addiu	k0,k0,-27820
9d008f60:	00000000 	nop
9d008f64:	40046800 	mfc0	a0,c0_cause
9d008f68:	40056000 	mfc0	a1,c0_status
9d008f6c:	0340f809 	jalr	k0
9d008f70:	00000000 	nop
9d008f74:	8fa80050 	lw	t0,80(sp)
9d008f78:	01000011 	mthi	t0
9d008f7c:	8fa8004c 	lw	t0,76(sp)
9d008f80:	01000013 	mtlo	t0
9d008f84:	8fa10004 	lw	at,4(sp)
9d008f88:	8fa20008 	lw	v0,8(sp)
9d008f8c:	8fa3000c 	lw	v1,12(sp)
9d008f90:	8fa40010 	lw	a0,16(sp)
9d008f94:	8fa50014 	lw	a1,20(sp)
9d008f98:	8fa60018 	lw	a2,24(sp)
9d008f9c:	8fa7001c 	lw	a3,28(sp)
9d008fa0:	8fa80020 	lw	t0,32(sp)
9d008fa4:	8fa90024 	lw	t1,36(sp)
9d008fa8:	8faa0028 	lw	t2,40(sp)
9d008fac:	8fab002c 	lw	t3,44(sp)
9d008fb0:	8fac0030 	lw	t4,48(sp)
9d008fb4:	8fad0034 	lw	t5,52(sp)
9d008fb8:	8fae0038 	lw	t6,56(sp)
9d008fbc:	8faf003c 	lw	t7,60(sp)
9d008fc0:	8fb80040 	lw	t8,64(sp)
9d008fc4:	8fb90044 	lw	t9,68(sp)
9d008fc8:	8fbf0048 	lw	ra,72(sp)
9d008fcc:	27bd0058 	addiu	sp,sp,88
9d008fd0:	000000c0 	ehb
9d008fd4:	42000018 	eret

Disassembly of section .text.__vsnprintf:

9d008fd8 <__vsnprintf>:
9d008fd8:	27bdffc8 	addiu	sp,sp,-56
9d008fdc:	2403ffff 	li	v1,-1
9d008fe0:	afa30010 	sw	v1,16(sp)
9d008fe4:	24030102 	li	v1,258
9d008fe8:	00a01025 	move	v0,a1
9d008fec:	afbf0034 	sw	ra,52(sp)
9d008ff0:	00c02825 	move	a1,a2
9d008ff4:	afa30014 	sw	v1,20(sp)
9d008ff8:	14800002 	bnez	a0,9d009004 <__vsnprintf+0x2c>
9d008ffc:	00e03025 	move	a2,a3
9d009000:	27a4002c 	addiu	a0,sp,44
9d009004:	afa40018 	sw	a0,24(sp)
9d009008:	afa2001c 	sw	v0,28(sp)
9d00900c:	10400002 	beqz	v0,9d009018 <__vsnprintf+0x40>
9d009010:	00001825 	move	v1,zero
9d009014:	2443ffff 	addiu	v1,v0,-1
9d009018:	04410008 	bgez	v0,9d00903c <__vsnprintf+0x64>
9d00901c:	afa30020 	sw	v1,32(sp)
9d009020:	3c02a000 	lui	v0,0xa000
9d009024:	2403004f 	li	v1,79
9d009028:	ac430008 	sw	v1,8(v0)
9d00902c:	2402ffff 	li	v0,-1
9d009030:	8fbf0034 	lw	ra,52(sp)
9d009034:	03e00008 	jr	ra
9d009038:	27bd0038 	addiu	sp,sp,56
9d00903c:	afa40028 	sw	a0,40(sp)
9d009040:	afa40024 	sw	a0,36(sp)
9d009044:	a0800000 	sb	zero,0(a0)
9d009048:	0f40250a 	jal	9d009428 <__vfprintf>
9d00904c:	27a40010 	addiu	a0,sp,16
9d009050:	1000fff8 	b	9d009034 <__vsnprintf+0x5c>
9d009054:	8fbf0034 	lw	ra,52(sp)

Disassembly of section .text:

9d009058 <__dinit_copy>:
9d009058:	03e00008 	jr	ra
9d00905c:	00000000 	nop

9d009060 <__pic32_data_init>:
9d009060:	03e01825 	move	v1,ra

9d009064 <_dinit_init>:
9d009064:	3c049d01 	lui	a0,0x9d01
9d009068:	24849614 	addiu	a0,a0,-27116
9d00906c:	10800016 	beqz	a0,9d0090c8 <_dinit_init+0x64>
9d009070:	00000000 	nop
9d009074:	8c850000 	lw	a1,0(a0)
9d009078:	10a00013 	beqz	a1,9d0090c8 <_dinit_init+0x64>
9d00907c:	24840004 	addiu	a0,a0,4
9d009080:	8c860000 	lw	a2,0(a0)
9d009084:	24840004 	addiu	a0,a0,4
9d009088:	848b0000 	lh	t3,0(a0)
9d00908c:	24840004 	addiu	a0,a0,4
9d009090:	3c0c9d01 	lui	t4,0x9d01
9d009094:	258c9600 	addiu	t4,t4,-27136
9d009098:	000b5880 	sll	t3,t3,0x2
9d00909c:	016c6021 	addu	t4,t3,t4
9d0090a0:	8d8c0000 	lw	t4,0(t4)
9d0090a4:	0180f809 	jalr	t4
9d0090a8:	00000000 	nop
9d0090ac:	00402025 	move	a0,v0
9d0090b0:	24840003 	addiu	a0,a0,3
9d0090b4:	2406fffc 	li	a2,-4
9d0090b8:	00c42024 	and	a0,a2,a0
9d0090bc:	8c850000 	lw	a1,0(a0)
9d0090c0:	14a0ffec 	bnez	a1,9d009074 <_dinit_init+0x10>
9d0090c4:	00000000 	nop
9d0090c8:	0060f825 	move	ra,v1
9d0090cc:	03e00008 	jr	ra
9d0090d0:	00000000 	nop

Disassembly of section .text.atoi:

9d0090d4 <atoi>:
9d0090d4:	24050020 	li	a1,32
9d0090d8:	80820000 	lb	v0,0(a0)
9d0090dc:	1045000d 	beq	v0,a1,9d009114 <atoi+0x40>
9d0090e0:	2443fff7 	addiu	v1,v0,-9
9d0090e4:	2c630005 	sltiu	v1,v1,5
9d0090e8:	1460000a 	bnez	v1,9d009114 <atoi+0x40>
9d0090ec:	2403002b 	li	v1,43
9d0090f0:	1043000a 	beq	v0,v1,9d00911c <atoi+0x48>
9d0090f4:	2403002d 	li	v1,45
9d0090f8:	14430003 	bne	v0,v1,9d009108 <atoi+0x34>
9d0090fc:	00002825 	move	a1,zero
9d009100:	24050001 	li	a1,1
9d009104:	24840001 	addiu	a0,a0,1
9d009108:	00001025 	move	v0,zero
9d00910c:	10000007 	b	9d00912c <atoi+0x58>
9d009110:	2407000a 	li	a3,10
9d009114:	1000fff0 	b	9d0090d8 <atoi+0x4>
9d009118:	24840001 	addiu	a0,a0,1
9d00911c:	1000fff9 	b	9d009104 <atoi+0x30>
9d009120:	00002825 	move	a1,zero
9d009124:	24840001 	addiu	a0,a0,1
9d009128:	00431023 	subu	v0,v0,v1
9d00912c:	80830000 	lb	v1,0(a0)
9d009130:	2463ffd0 	addiu	v1,v1,-48
9d009134:	2c66000a 	sltiu	a2,v1,10
9d009138:	54c0fffa 	bnezl	a2,9d009124 <atoi+0x50>
9d00913c:	70471002 	mul	v0,v0,a3
9d009140:	50a00001 	beqzl	a1,9d009148 <atoi+0x74>
9d009144:	00021023 	negu	v0,v0
9d009148:	03e00008 	jr	ra
9d00914c:	00000000 	nop

Disassembly of section .rodata:

9d009150 <.rodata>:
9d009150:	364c5049 	ori	t4,s2,0x5049
9d009154:	54464f53 	bnel	v0,a2,9d01cea4 <__fmt_s+0x13860>
9d009158:	206e6920 	addi	t6,v1,26912
9d00915c:	20643325 	addi	a0,v1,13093
9d009160:	2074756f 	addi	s4,v1,30063
9d009164:	20643325 	addi	a0,v1,13093
9d009168:	61746f74 	0x61746f74
9d00916c:	3325206c 	andi	a1,t9,0x206c
9d009170:	69742064 	0x69742064
9d009174:	2520656d 	addiu	zero,t1,25965
9d009178:	6e206434 	0x6e206434
9d00917c:	000a0d73 	tltu	zero,t2,0x35
9d009180:	4c504920 	madd.s	$f4,$f2,$f9,$f16
9d009184:	53525336 	beql	k0,s2,9d01de60 <__fmt_s+0x1481c>
9d009188:	206e6920 	addi	t6,v1,26912
9d00918c:	20643325 	addi	a0,v1,13093
9d009190:	2074756f 	addi	s4,v1,30063
9d009194:	20643325 	addi	a0,v1,13093
9d009198:	61746f74 	0x61746f74
9d00919c:	3325206c 	andi	a1,t9,0x206c
9d0091a0:	69742064 	0x69742064
9d0091a4:	2520656d 	addiu	zero,t1,25965
9d0091a8:	6e206434 	0x6e206434
9d0091ac:	000a0d73 	tltu	zero,t2,0x35

Disassembly of section .text.__string_out:

9d0091b0 <__out>:
9d0091b0:	8c820010 	lw	v0,16(a0)
9d0091b4:	27bdffe0 	addiu	sp,sp,-32
9d0091b8:	afb10018 	sw	s1,24(sp)
9d0091bc:	00c2882b 	sltu	s1,a2,v0
9d0091c0:	0051300a 	movz	a2,v0,s1
9d0091c4:	afbf001c 	sw	ra,28(sp)
9d0091c8:	10c0000c 	beqz	a2,9d0091fc <__out+0x4c>
9d0091cc:	afb00014 	sw	s0,20(sp)
9d0091d0:	00808025 	move	s0,a0
9d0091d4:	8c840014 	lw	a0,20(a0)
9d0091d8:	0f402530 	jal	9d0094c0 <memcpy>
9d0091dc:	00c08825 	move	s1,a2
9d0091e0:	8e020014 	lw	v0,20(s0)
9d0091e4:	8e060010 	lw	a2,16(s0)
9d0091e8:	00511021 	addu	v0,v0,s1
9d0091ec:	00d18823 	subu	s1,a2,s1
9d0091f0:	ae020014 	sw	v0,20(s0)
9d0091f4:	ae110010 	sw	s1,16(s0)
9d0091f8:	a0400000 	sb	zero,0(v0)
9d0091fc:	8fbf001c 	lw	ra,28(sp)
9d009200:	8fb10018 	lw	s1,24(sp)
9d009204:	8fb00014 	lw	s0,20(sp)
9d009208:	03e00008 	jr	ra
9d00920c:	27bd0020 	addiu	sp,sp,32

Disassembly of section .text.__fmt_state:

9d009210 <__fmt_state>:
9d009210:	3c069d01 	lui	a2,0x9d01
9d009214:	00001025 	move	v0,zero
9d009218:	24c695d0 	addiu	a2,a2,-27184
9d00921c:	00021840 	sll	v1,v0,0x1
9d009220:	00661821 	addu	v1,v1,a2
9d009224:	80670000 	lb	a3,0(v1)
9d009228:	54e00003 	bnezl	a3,9d009238 <__fmt_state+0x28>
9d00922c:	8c850000 	lw	a1,0(a0)
9d009230:	03e00008 	jr	ra
9d009234:	90620001 	lbu	v0,1(v1)
9d009238:	24420001 	addiu	v0,v0,1
9d00923c:	80a80000 	lb	t0,0(a1)
9d009240:	15070004 	bne	t0,a3,9d009254 <__fmt_state+0x44>
9d009244:	304200ff 	andi	v0,v0,0xff
9d009248:	90620001 	lbu	v0,1(v1)
9d00924c:	24a50001 	addiu	a1,a1,1
9d009250:	ac850000 	sw	a1,0(a0)
9d009254:	2c43000b 	sltiu	v1,v0,11
9d009258:	1460fff1 	bnez	v1,9d009220 <__fmt_state+0x10>
9d00925c:	00021840 	sll	v1,v0,0x1
9d009260:	03e00008 	jr	ra
9d009264:	00000000 	nop

Disassembly of section .text.main_entry:

9d009268 <_main_entry>:
9d009268:	3c040000 	lui	a0,0x0
9d00926c:	27bdffe8 	addiu	sp,sp,-24
9d009270:	24840000 	addiu	a0,a0,0
9d009274:	10800003 	beqz	a0,9d009284 <_main_entry+0x1c>
9d009278:	afbf0014 	sw	ra,20(sp)
9d00927c:	0080f809 	jalr	a0
9d009280:	00000000 	nop
9d009284:	30840000 	andi	a0,a0,0x0
9d009288:	30a50000 	andi	a1,a1,0x0
9d00928c:	3c089d00 	lui	t0,0x9d00
9d009290:	25087be8 	addiu	t0,t0,31720
9d009294:	0100f809 	jalr	t0
9d009298:	00000000 	nop

9d00929c <__crt0_exit>:
9d00929c:	3c020000 24420000 10400003 00000000     ...<..B$..@.....
9d0092ac:	0040f809 00000000 1000fff9 00000000     ..@.............

Disassembly of section .text.__pop_float:

9d0092bc <__pop_float>:
9d0092bc:	28a30080 	slti	v1,a1,128
9d0092c0:	14600010 	bnez	v1,9d009304 <__pop_float+0x48>
9d0092c4:	00001025 	move	v0,zero
9d0092c8:	28a30082 	slti	v1,a1,130
9d0092cc:	14600003 	bnez	v1,9d0092dc <__pop_float+0x20>
9d0092d0:	24030083 	li	v1,131
9d0092d4:	14a3000b 	bne	a1,v1,9d009304 <__pop_float+0x48>
9d0092d8:	00000000 	nop
9d0092dc:	8cc20000 	lw	v0,0(a2)
9d0092e0:	24420007 	addiu	v0,v0,7
9d0092e4:	7c021004 	ins	v0,zero,0x0,0x3
9d0092e8:	24430008 	addiu	v1,v0,8
9d0092ec:	acc30000 	sw	v1,0(a2)
9d0092f0:	8c430004 	lw	v1,4(v0)
9d0092f4:	8c420000 	lw	v0,0(v0)
9d0092f8:	ac830004 	sw	v1,4(a0)
9d0092fc:	ac820000 	sw	v0,0(a0)
9d009300:	24020001 	li	v0,1
9d009304:	03e00008 	jr	ra
9d009308:	00000000 	nop

Disassembly of section .text._bootstrap_exception_handler:

9d00930c <_bootstrap_exception_handler>:
9d00930c:	3c020000 	lui	v0,0x0
9d009310:	24420000 	addiu	v0,v0,0
9d009314:	10400005 	beqz	v0,9d00932c <_bootstrap_exception_handler+0x20>
9d009318:	3c020000 	lui	v0,0x0
9d00931c:	24420000 	addiu	v0,v0,0
9d009320:	10400003 	beqz	v0,9d009330 <_bootstrap_exception_handler+0x24>
9d009324:	3c029d01 	lui	v0,0x9d01
9d009328:	7000003f 	sdbbp
9d00932c:	3c029d01 	lui	v0,0x9d01
9d009330:	244293e4 	addiu	v0,v0,-27676
9d009334:	10400005 	beqz	v0,9d00934c <_bootstrap_exception_handler+0x40>
9d009338:	00000000 	nop
9d00933c:	27bdffe8 	addiu	sp,sp,-24
9d009340:	afbf0014 	sw	ra,20(sp)
9d009344:	0040f809 	jalr	v0
9d009348:	00000000 	nop
9d00934c:	1000ffff 	b	9d00934c <_bootstrap_exception_handler+0x40>
9d009350:	00000000 	nop

Disassembly of section .text._general_exception_handler:

9d009354 <_general_exception_handler>:
9d009354:	3c020000 	lui	v0,0x0
9d009358:	24420000 	addiu	v0,v0,0
9d00935c:	10400005 	beqz	v0,9d009374 <_general_exception_handler+0x20>
9d009360:	3c020000 	lui	v0,0x0
9d009364:	24420000 	addiu	v0,v0,0
9d009368:	10400003 	beqz	v0,9d009378 <_general_exception_handler+0x24>
9d00936c:	3c029d01 	lui	v0,0x9d01
9d009370:	7000003f 	sdbbp
9d009374:	3c029d01 	lui	v0,0x9d01
9d009378:	244293e4 	addiu	v0,v0,-27676
9d00937c:	10400005 	beqz	v0,9d009394 <_general_exception_handler+0x40>
9d009380:	00000000 	nop
9d009384:	27bdffe8 	addiu	sp,sp,-24
9d009388:	afbf0014 	sw	ra,20(sp)
9d00938c:	0040f809 	jalr	v0
9d009390:	00000000 	nop
9d009394:	1000ffff 	b	9d009394 <_general_exception_handler+0x40>
9d009398:	00000000 	nop

Disassembly of section .vector_default:

9d00939c <_DefaultInterrupt>:
9d00939c:	3c020000 	lui	v0,0x0
9d0093a0:	24420000 	addiu	v0,v0,0
9d0093a4:	10400007 	beqz	v0,9d0093c4 <_DefaultInterrupt+0x28>
9d0093a8:	3c020000 	lui	v0,0x0
9d0093ac:	24420000 	addiu	v0,v0,0
9d0093b0:	50400005 	beqzl	v0,9d0093c8 <_DefaultInterrupt+0x2c>
9d0093b4:	3c029d01 	lui	v0,0x9d01
9d0093b8:	7000003f 	sdbbp
9d0093bc:	03e00008 	jr	ra
9d0093c0:	00000000 	nop
9d0093c4:	3c029d01 	lui	v0,0x9d01
9d0093c8:	244293e4 	addiu	v0,v0,-27676
9d0093cc:	10400003 	beqz	v0,9d0093dc <_DefaultInterrupt+0x40>
9d0093d0:	00000000 	nop
9d0093d4:	0040f809 	jalr	v0
9d0093d8:	00000000 	nop
9d0093dc:	03e00008 	jr	ra
9d0093e0:	00000000 	nop

Disassembly of section .text:

9d0093e4 <__pic32_software_reset>:
9d0093e4:	41606000 	di
9d0093e8:	000000c0 	ehb
9d0093ec:	3c03aa99 	lui	v1,0xaa99
9d0093f0:	3c02bf81 	lui	v0,0xbf81
9d0093f4:	24636655 	addiu	v1,v1,26197
9d0093f8:	ac40f230 	sw	zero,-3536(v0)
9d0093fc:	ac43f230 	sw	v1,-3536(v0)
9d009400:	3c035566 	lui	v1,0x5566
9d009404:	346399aa 	ori	v1,v1,0x99aa
9d009408:	ac43f230 	sw	v1,-3536(v0)
9d00940c:	3c02bf81 	lui	v0,0xbf81
9d009410:	24030001 	li	v1,1
9d009414:	ac43f618 	sw	v1,-2536(v0)
9d009418:	3c02bf81 	lui	v0,0xbf81
9d00941c:	8c42f610 	lw	v0,-2544(v0)
9d009420:	0b4024fb 	j	9d0093ec <__pic32_software_reset+0x8>
9d009424:	00000000 	nop

Disassembly of section .text.__vfprintf:

9d009428 <__vfprintf>:
9d009428:	27bdffe0 	addiu	sp,sp,-32
9d00942c:	afb00018 	sw	s0,24(sp)
9d009430:	afa60010 	sw	a2,16(sp)
9d009434:	00808025 	move	s0,a0
9d009438:	afbf001c 	sw	ra,28(sp)
9d00943c:	0f401d27 	jal	9d00749c <__printf_core>
9d009440:	27a60010 	addiu	a2,sp,16
9d009444:	8e030004 	lw	v1,4(s0)
9d009448:	8fbf001c 	lw	ra,28(sp)
9d00944c:	2404ffff 	li	a0,-1
9d009450:	30630010 	andi	v1,v1,0x10
9d009454:	0083100b 	movn	v0,a0,v1
9d009458:	8fb00018 	lw	s0,24(sp)
9d00945c:	03e00008 	jr	ra
9d009460:	27bd0020 	addiu	sp,sp,32

Disassembly of section .text.strlen:

9d009464 <strlen>:
9d009464:	80820000 	lb	v0,0(a0)
9d009468:	10400008 	beqz	v0,9d00948c <strlen+0x28>
9d00946c:	00000000 	nop
9d009470:	00801025 	move	v0,a0
9d009474:	24420001 	addiu	v0,v0,1
9d009478:	80430000 	lb	v1,0(v0)
9d00947c:	5460fffe 	bnezl	v1,9d009478 <strlen+0x14>
9d009480:	24420001 	addiu	v0,v0,1
9d009484:	03e00008 	jr	ra
9d009488:	00441023 	subu	v0,v0,a0
9d00948c:	03e00008 	jr	ra
9d009490:	00001025 	move	v0,zero

Disassembly of section .text.__sio_sprintf_dn:

9d009494 <__sio_sprintf_dn>:
9d009494:	27bdffe8 	addiu	sp,sp,-24
9d009498:	afbf0014 	sw	ra,20(sp)
9d00949c:	0f4022a3 	jal	9d008a8c <__fmt_d>
9d0094a0:	00000000 	nop
9d0094a4:	0f402241 	jal	9d008904 <__pop_int>
9d0094a8:	00000000 	nop
9d0094ac:	0f402386 	jal	9d008e18 <__pop_ptr>
9d0094b0:	00000000 	nop
9d0094b4:	8fbf0014 	lw	ra,20(sp)
9d0094b8:	03e00008 	jr	ra
9d0094bc:	27bd0018 	addiu	sp,sp,24

Disassembly of section .text.memcpy:

9d0094c0 <memcpy>:
9d0094c0:	10c00008 	beqz	a2,9d0094e4 <memcpy+0x24>
9d0094c4:	00801025 	move	v0,a0
9d0094c8:	00863021 	addu	a2,a0,a2
9d0094cc:	00801825 	move	v1,a0
9d0094d0:	24a50001 	addiu	a1,a1,1
9d0094d4:	90a7ffff 	lbu	a3,-1(a1)
9d0094d8:	24630001 	addiu	v1,v1,1
9d0094dc:	1466fffc 	bne	v1,a2,9d0094d0 <memcpy+0x10>
9d0094e0:	a067ffff 	sb	a3,-1(v1)
9d0094e4:	03e00008 	jr	ra
9d0094e8:	00000000 	nop

Disassembly of section .text.memset:

9d0094ec <memset>:
9d0094ec:	10c00007 	beqz	a2,9d00950c <memset+0x20>
9d0094f0:	00801025 	move	v0,a0
9d0094f4:	7c052c20 	seb	a1,a1
9d0094f8:	00863021 	addu	a2,a0,a2
9d0094fc:	00801825 	move	v1,a0
9d009500:	24630001 	addiu	v1,v1,1
9d009504:	1466fffe 	bne	v1,a2,9d009500 <memset+0x14>
9d009508:	a065ffff 	sb	a1,-1(v1)
9d00950c:	03e00008 	jr	ra
9d009510:	00000000 	nop

Disassembly of section .text.__wrap_sprintf:

9d009514 <_dsprintf_dn>:
9d009514:	27bdffe0 	addiu	sp,sp,-32
9d009518:	afa60028 	sw	a2,40(sp)
9d00951c:	27a60028 	addiu	a2,sp,40
9d009520:	afbf001c 	sw	ra,28(sp)
9d009524:	afa7002c 	sw	a3,44(sp)
9d009528:	0f40254f 	jal	9d00953c <__vsprintf>
9d00952c:	afa60010 	sw	a2,16(sp)
9d009530:	8fbf001c 	lw	ra,28(sp)
9d009534:	03e00008 	jr	ra
9d009538:	27bd0020 	addiu	sp,sp,32

Disassembly of section .text.__vsprintf:

9d00953c <__vsprintf>:
9d00953c:	00c03825 	move	a3,a2
9d009540:	00a03025 	move	a2,a1
9d009544:	3c057fff 	lui	a1,0x7fff
9d009548:	27bdffe8 	addiu	sp,sp,-24
9d00954c:	afbf0014 	sw	ra,20(sp)
9d009550:	0f4023f6 	jal	9d008fd8 <__vsnprintf>
9d009554:	34a5ffff 	ori	a1,a1,0xffff
9d009558:	8fbf0014 	lw	ra,20(sp)
9d00955c:	03e00008 	jr	ra
9d009560:	27bd0018 	addiu	sp,sp,24

Disassembly of section .text.tolower:

9d009564 <tolower>:
9d009564:	2483ffbf 	addiu	v1,a0,-65
9d009568:	2c63001a 	sltiu	v1,v1,26
9d00956c:	10600002 	beqz	v1,9d009578 <tolower+0x14>
9d009570:	00801025 	move	v0,a0
9d009574:	34820020 	ori	v0,a0,0x20
9d009578:	03e00008 	jr	ra
9d00957c:	00000000 	nop

Disassembly of section .text.__tolower_l:

9d009580 <__tolower_l>:
9d009580:	27bdffe8 	addiu	sp,sp,-24
9d009584:	afbf0014 	sw	ra,20(sp)
9d009588:	0f402559 	jal	9d009564 <tolower>
9d00958c:	00000000 	nop
9d009590:	8fbf0014 	lw	ra,20(sp)
9d009594:	03e00008 	jr	ra
9d009598:	27bd0018 	addiu	sp,sp,24

Disassembly of section .text:

9d0095b8 <_nmi_handler>:
9d0095b8:	401a6000 	mfc0	k0,c0_status
9d0095bc:	3c1bffbf 	lui	k1,0xffbf
9d0095c0:	377bffff 	ori	k1,k1,0xffff
9d0095c4:	035bd024 	and	k0,k0,k1
9d0095c8:	409a6000 	mtc0	k0,c0_status
9d0095cc:	42000018 	eret

Disassembly of section .rodata:

9d0095d0 <state_table>:
9d0095d0:	096c0768 906a834c c07aa074 88688000     h.l.L.j.t.z...h.
9d0095e0:	826c8400 00008100                       ..l.....

Disassembly of section .text:

9d0095e8 <__dinit_clear>:
9d0095e8:	24c6ffff 	addiu	a2,a2,-1
9d0095ec:	a0a00000 	sb	zero,0(a1)
9d0095f0:	14c0fffd 	bnez	a2,9d0095e8 <__dinit_clear>
9d0095f4:	24a50001 	addiu	a1,a1,1
9d0095f8:	03e00008 	jr	ra
9d0095fc:	00801025 	move	v0,a0

Disassembly of section .rodata:

9d009600 <_dinit_func_table>:
9d009600:	9d0095e8 9d009058 9d009058 9d009058     ....X...X...X...
9d009610:	9d009058                                X...

Disassembly of section .dinit:

9d009614 <.dinit>:
9d009614:	a0000000 	sb	zero,0(zero)
9d009618:	0000000c 	syscall
	...

Disassembly of section .text._on_reset:

9d009624 <_on_reset>:
9d009624:	03e00008 	jr	ra
9d009628:	00000000 	nop

Disassembly of section .text._on_bootstrap:

9d00962c <_on_bootstrap>:
9d00962c:	03e00008 	jr	ra
9d009630:	00000000 	nop

Disassembly of section .text.__dummy_fmt3:

9d009634 <__fmt_o>:
9d009634:	03e00008 	jr	ra
9d009638:	00001025 	move	v0,zero

Disassembly of section .text.__dummy_fmt4:

9d00963c <__fmt_a>:
9d00963c:	03e00008 	jr	ra
9d009640:	00001025 	move	v0,zero

Disassembly of section .text.__dummy_fmts:

9d009644 <__fmt_s>:
9d009644:	03e00008 	jr	ra
9d009648:	00001025 	move	v0,zero
